ARM GAS  C:\Users\elhyd\AppData\Local\Temp\ccLVS8OV.s 			page 1


   1              		.cpu cortex-m4
   2              		.arch armv7e-m
   3              		.fpu fpv4-sp-d16
   4              		.eabi_attribute 27, 1
   5              		.eabi_attribute 28, 1
   6              		.eabi_attribute 20, 1
   7              		.eabi_attribute 21, 1
   8              		.eabi_attribute 23, 3
   9              		.eabi_attribute 24, 1
  10              		.eabi_attribute 25, 1
  11              		.eabi_attribute 26, 1
  12              		.eabi_attribute 30, 1
  13              		.eabi_attribute 34, 1
  14              		.eabi_attribute 18, 4
  15              		.file	"main.c"
  16              		.text
  17              	.Ltext0:
  18              		.cfi_sections	.debug_frame
  19              		.file 1 "Core/Src/main.c"
  20              		.section	.text.displayOnLCD,"ax",%progbits
  21              		.align	1
  22              		.global	displayOnLCD
  23              		.syntax unified
  24              		.thumb
  25              		.thumb_func
  27              	displayOnLCD:
  28              	.LVL0:
  29              	.LFB1107:
   1:Core/Src/main.c **** /* USER CODE BEGIN Header */
   2:Core/Src/main.c **** /**
   3:Core/Src/main.c ****   ******************************************************************************
   4:Core/Src/main.c ****   * @file           : main.c
   5:Core/Src/main.c ****   * @brief          : Main program body
   6:Core/Src/main.c ****   ******************************************************************************
   7:Core/Src/main.c ****   * @attention
   8:Core/Src/main.c ****   *
   9:Core/Src/main.c ****   * Copyright (c) 2025 STMicroelectronics.
  10:Core/Src/main.c ****   * All rights reserved.
  11:Core/Src/main.c ****   *
  12:Core/Src/main.c ****   * This software is licensed under terms that can be found in the LICENSE file
  13:Core/Src/main.c ****   * in the root directory of this software component.
  14:Core/Src/main.c ****   * If no LICENSE file comes with this software, it is provided AS-IS.
  15:Core/Src/main.c ****   *
  16:Core/Src/main.c ****   ******************************************************************************
  17:Core/Src/main.c ****   */
  18:Core/Src/main.c **** /* USER CODE END Header */
  19:Core/Src/main.c **** /* Includes ------------------------------------------------------------------*/
  20:Core/Src/main.c **** #include "main.h"
  21:Core/Src/main.c **** #include "adc.h"
  22:Core/Src/main.c **** #include "tim.h"
  23:Core/Src/main.c **** #include "usart.h"
  24:Core/Src/main.c **** #include "gpio.h"
  25:Core/Src/main.c **** 
  26:Core/Src/main.c **** /* Private includes ----------------------------------------------------------*/
  27:Core/Src/main.c **** /* USER CODE BEGIN Includes */
  28:Core/Src/main.c **** #include "lcd1602.h"
  29:Core/Src/main.c **** #include <stdio.h> 
ARM GAS  C:\Users\elhyd\AppData\Local\Temp\ccLVS8OV.s 			page 2


  30:Core/Src/main.c **** #include <string.h>
  31:Core/Src/main.c **** #include "joystick.h"
  32:Core/Src/main.c **** /* USER CODE END Includes */
  33:Core/Src/main.c **** 
  34:Core/Src/main.c **** /* Private typedef -----------------------------------------------------------*/
  35:Core/Src/main.c **** /* USER CODE BEGIN PTD */
  36:Core/Src/main.c **** 
  37:Core/Src/main.c **** /* USER CODE END PTD */
  38:Core/Src/main.c **** 
  39:Core/Src/main.c **** /* Private define ------------------------------------------------------------*/
  40:Core/Src/main.c **** /* USER CODE BEGIN PD */
  41:Core/Src/main.c **** 
  42:Core/Src/main.c **** /* USER CODE END PD */
  43:Core/Src/main.c **** 
  44:Core/Src/main.c **** /* Private macro -------------------------------------------------------------*/
  45:Core/Src/main.c **** /* USER CODE BEGIN PM */
  46:Core/Src/main.c **** 
  47:Core/Src/main.c **** /* USER CODE END PM */
  48:Core/Src/main.c **** 
  49:Core/Src/main.c **** /* Private variables ---------------------------------------------------------*/
  50:Core/Src/main.c **** 
  51:Core/Src/main.c **** /* USER CODE BEGIN PV */
  52:Core/Src/main.c **** typedef enum 
  53:Core/Src/main.c **** {
  54:Core/Src/main.c ****   WELCOME = 0,
  55:Core/Src/main.c ****   START,
  56:Core/Src/main.c ****   PLAYER_MENU,
  57:Core/Src/main.c ****   PLAYER_SELECT,
  58:Core/Src/main.c ****   ONE_PLAYER,
  59:Core/Src/main.c ****   TWO_PLAYERS,
  60:Core/Src/main.c ****   SCORES,
  61:Core/Src/main.c ****   GAME_RESULT,
  62:Core/Src/main.c ****   SLEEP
  63:Core/Src/main.c **** } GameState ; 
  64:Core/Src/main.c **** 
  65:Core/Src/main.c **** typedef struct 
  66:Core/Src/main.c **** {
  67:Core/Src/main.c ****   uint8_t numPlayers;
  68:Core/Src/main.c ****   uint8_t currentPlayer;
  69:Core/Src/main.c ****   uint8_t sequence[100];
  70:Core/Src/main.c ****   uint8_t sequenceLength;
  71:Core/Src/main.c ****   uint8_t playerInputs[2][100];
  72:Core/Src/main.c ****   uint8_t playerScores[2];
  73:Core/Src/main.c **** } GameInfo ;
  74:Core/Src/main.c **** 
  75:Core/Src/main.c **** Joystick_HandleTypeDef joystick;
  76:Core/Src/main.c **** /* USER CODE END PV */
  77:Core/Src/main.c **** 
  78:Core/Src/main.c **** /* Private function prototypes -----------------------------------------------*/
  79:Core/Src/main.c **** void SystemClock_Config(void);
  80:Core/Src/main.c **** void PeriphCommonClock_Config(void);
  81:Core/Src/main.c **** /* USER CODE BEGIN PFP */
  82:Core/Src/main.c **** 
  83:Core/Src/main.c **** /* USER CODE END PFP */
  84:Core/Src/main.c **** 
  85:Core/Src/main.c **** /* Private user code ---------------------------------------------------------*/
  86:Core/Src/main.c **** /* USER CODE BEGIN 0 */
ARM GAS  C:\Users\elhyd\AppData\Local\Temp\ccLVS8OV.s 			page 3


  87:Core/Src/main.c **** /**
  88:Core/Src/main.c ****  * @brief  Display two lines of text on the LCD.
  89:Core/Src/main.c ****  * @param  lineOne: Pointer to the first line of text (max 16 characters).
  90:Core/Src/main.c ****  * @param  lineTwo: Pointer to the second line of text (max 16 characters
  91:Core/Src/main.c ****  */
  92:Core/Src/main.c **** void displayOnLCD(char* lineOne, char* lineTwo)
  93:Core/Src/main.c **** {
  30              		.loc 1 93 1 view -0
  31              		.cfi_startproc
  32              		@ args = 0, pretend = 0, frame = 0
  33              		@ frame_needed = 0, uses_anonymous_args = 0
  34              		.loc 1 93 1 is_stmt 0 view .LVU1
  35 0000 38B5     		push	{r3, r4, r5, lr}
  36              		.cfi_def_cfa_offset 16
  37              		.cfi_offset 3, -16
  38              		.cfi_offset 4, -12
  39              		.cfi_offset 5, -8
  40              		.cfi_offset 14, -4
  41 0002 0546     		mov	r5, r0
  42 0004 0C46     		mov	r4, r1
  94:Core/Src/main.c ****   LCD_GotoXY(0, 0);
  43              		.loc 1 94 3 is_stmt 1 view .LVU2
  44 0006 0021     		movs	r1, #0
  45              	.LVL1:
  46              		.loc 1 94 3 is_stmt 0 view .LVU3
  47 0008 0846     		mov	r0, r1
  48              	.LVL2:
  49              		.loc 1 94 3 view .LVU4
  50 000a FFF7FEFF 		bl	LCD_GotoXY
  51              	.LVL3:
  95:Core/Src/main.c ****   LCD_Print(lineOne);
  52              		.loc 1 95 3 is_stmt 1 view .LVU5
  53 000e 2846     		mov	r0, r5
  54 0010 FFF7FEFF 		bl	LCD_Print
  55              	.LVL4:
  96:Core/Src/main.c ****   LCD_GotoXY(0, 1);
  56              		.loc 1 96 3 view .LVU6
  57 0014 0121     		movs	r1, #1
  58 0016 0020     		movs	r0, #0
  59 0018 FFF7FEFF 		bl	LCD_GotoXY
  60              	.LVL5:
  97:Core/Src/main.c ****   LCD_Print(lineTwo);
  61              		.loc 1 97 3 view .LVU7
  62 001c 2046     		mov	r0, r4
  63 001e FFF7FEFF 		bl	LCD_Print
  64              	.LVL6:
  98:Core/Src/main.c ****   HAL_Delay(1000);
  65              		.loc 1 98 3 view .LVU8
  66 0022 4FF47A70 		mov	r0, #1000
  67 0026 FFF7FEFF 		bl	HAL_Delay
  68              	.LVL7:
  99:Core/Src/main.c **** }
  69              		.loc 1 99 1 is_stmt 0 view .LVU9
  70 002a 38BD     		pop	{r3, r4, r5, pc}
  71              		.loc 1 99 1 view .LVU10
  72              		.cfi_endproc
  73              	.LFE1107:
ARM GAS  C:\Users\elhyd\AppData\Local\Temp\ccLVS8OV.s 			page 4


  75              		.section	.text.Error_Handler,"ax",%progbits
  76              		.align	1
  77              		.global	Error_Handler
  78              		.syntax unified
  79              		.thumb
  80              		.thumb_func
  82              	Error_Handler:
  83              	.LFB1111:
 100:Core/Src/main.c **** /* USER CODE END 0 */
 101:Core/Src/main.c **** 
 102:Core/Src/main.c **** /**
 103:Core/Src/main.c ****   * @brief  The application entry point.
 104:Core/Src/main.c ****   * @retval int
 105:Core/Src/main.c ****   */
 106:Core/Src/main.c **** int main(void)
 107:Core/Src/main.c **** {
 108:Core/Src/main.c **** 
 109:Core/Src/main.c ****   /* USER CODE BEGIN 1 */
 110:Core/Src/main.c **** 
 111:Core/Src/main.c ****   /* USER CODE END 1 */
 112:Core/Src/main.c **** 
 113:Core/Src/main.c ****   /* MCU Configuration--------------------------------------------------------*/
 114:Core/Src/main.c **** 
 115:Core/Src/main.c ****   /* Reset of all peripherals, Initializes the Flash interface and the Systick. */
 116:Core/Src/main.c ****   HAL_Init();
 117:Core/Src/main.c **** 
 118:Core/Src/main.c ****   /* USER CODE BEGIN Init */
 119:Core/Src/main.c **** 
 120:Core/Src/main.c ****   /* USER CODE END Init */
 121:Core/Src/main.c **** 
 122:Core/Src/main.c ****   /* Configure the system clock */
 123:Core/Src/main.c ****   SystemClock_Config();
 124:Core/Src/main.c **** 
 125:Core/Src/main.c ****   /* Configure the peripherals common clocks */
 126:Core/Src/main.c ****   PeriphCommonClock_Config();
 127:Core/Src/main.c **** 
 128:Core/Src/main.c ****   /* USER CODE BEGIN SysInit */
 129:Core/Src/main.c **** 
 130:Core/Src/main.c ****   /* USER CODE END SysInit */
 131:Core/Src/main.c **** 
 132:Core/Src/main.c ****   /* Initialize all configured peripherals */
 133:Core/Src/main.c ****   MX_GPIO_Init();
 134:Core/Src/main.c ****   MX_ADC1_Init();
 135:Core/Src/main.c ****   MX_USART1_UART_Init();
 136:Core/Src/main.c ****   MX_TIM2_Init();
 137:Core/Src/main.c ****   /* USER CODE BEGIN 2 */
 138:Core/Src/main.c ****   HAL_TIM_Base_Start(&htim2);
 139:Core/Src/main.c ****   /*** Initialize LCD ***/
 140:Core/Src/main.c ****   LCD_Init();
 141:Core/Src/main.c ****   LCD_Cls();
 142:Core/Src/main.c ****   /*** End of LCD Initialization ***/
 143:Core/Src/main.c **** 
 144:Core/Src/main.c ****   /*** Initialize Joystick ***/
 145:Core/Src/main.c ****   Joystick_Init(&joystick, &hadc1, ADC_CHANNEL_7, ADC_CHANNEL_8, 
 146:Core/Src/main.c ****                  GPIOC, GPIO_PIN_6);
 147:Core/Src/main.c ****   Joystick_Calibrate(&joystick);
 148:Core/Src/main.c ****   /*** End of Joystick Initialization ***/
ARM GAS  C:\Users\elhyd\AppData\Local\Temp\ccLVS8OV.s 			page 5


 149:Core/Src/main.c **** 
 150:Core/Src/main.c ****   GameState currentState = WELCOME;
 151:Core/Src/main.c ****   GameInfo play;
 152:Core/Src/main.c ****   char lineOne[17] = {0}, lineTwo[17] = {0};
 153:Core/Src/main.c ****   int directionDelay = 0;
 154:Core/Src/main.c ****   JoyStickDirection direction = JOY_IDLE, lastDirection = JOY_IDLE;
 155:Core/Src/main.c ****   /* USER CODE END 2 */
 156:Core/Src/main.c **** 
 157:Core/Src/main.c ****   /* Infinite loop */
 158:Core/Src/main.c ****   /* USER CODE BEGIN WHILE */
 159:Core/Src/main.c ****   while (1)
 160:Core/Src/main.c ****   {
 161:Core/Src/main.c ****     /* USER CODE END WHILE */
 162:Core/Src/main.c **** 
 163:Core/Src/main.c ****     /* USER CODE BEGIN 3 */
 164:Core/Src/main.c ****     // FSM to manage game states
 165:Core/Src/main.c ****     switch(currentState)
 166:Core/Src/main.c ****     {
 167:Core/Src/main.c ****       // Display WELCOME message and 
 168:Core/Src/main.c ****       //Push to start prompt after 2 seconds
 169:Core/Src/main.c ****       case WELCOME:
 170:Core/Src/main.c ****         LCD_Cls();
 171:Core/Src/main.c ****         snprintf(lineOne, sizeof(lineOne), "Welcome to the");
 172:Core/Src/main.c ****         snprintf(lineTwo, sizeof(lineTwo), "Simon Game");
 173:Core/Src/main.c ****         displayOnLCD(lineOne, lineTwo);
 174:Core/Src/main.c ****         HAL_Delay(2000);  
 175:Core/Src/main.c ****         
 176:Core/Src/main.c ****         LCD_Cls();
 177:Core/Src/main.c ****         snprintf(lineOne, sizeof(lineOne), "Push To Start!");
 178:Core/Src/main.c ****         snprintf(lineTwo, sizeof(lineTwo), "");
 179:Core/Src/main.c ****         displayOnLCD(lineOne, lineTwo);
 180:Core/Src/main.c ****         currentState = START;
 181:Core/Src/main.c ****         break;
 182:Core/Src/main.c **** 
 183:Core/Src/main.c ****       // Check if Joystick is pressed to start the game
 184:Core/Src/main.c ****       case START:
 185:Core/Src/main.c ****         if (Joystick_Pressed(&joystick)) 
 186:Core/Src/main.c ****         {  currentState = PLAYER_MENU;  }        
 187:Core/Src/main.c ****         break;
 188:Core/Src/main.c **** 
 189:Core/Src/main.c ****       // Display Player selection menu
 190:Core/Src/main.c ****       case PLAYER_MENU:
 191:Core/Src/main.c ****         LCD_Cls();
 192:Core/Src/main.c ****         snprintf(lineOne, sizeof(lineOne), "1 player OR");
 193:Core/Src/main.c ****         snprintf(lineTwo, sizeof(lineTwo), "2 players?");
 194:Core/Src/main.c ****         displayOnLCD(lineOne, lineTwo);
 195:Core/Src/main.c ****         currentState = PLAYER_SELECT;
 196:Core/Src/main.c ****         break;
 197:Core/Src/main.c **** 
 198:Core/Src/main.c ****       // Handle Player selection based on joystick UP/DOWN input
 199:Core/Src/main.c ****       case PLAYER_SELECT:
 200:Core/Src/main.c ****         // Read the joystick input to determine the number of players
 201:Core/Src/main.c ****         direction = Joystick_GetDirection(&joystick);
 202:Core/Src/main.c **** 
 203:Core/Src/main.c ****         // Adding "debounce" logic to help resolve jittery input
 204:Core/Src/main.c ****         //causing direciton UP to be seen once
 205:Core/Src/main.c ****         if(directionDelay < 3 && lastDirection == JOY_UP && direction == JOY_IDLE)
ARM GAS  C:\Users\elhyd\AppData\Local\Temp\ccLVS8OV.s 			page 6


 206:Core/Src/main.c ****         {
 207:Core/Src/main.c ****           direction = JOY_UP;
 208:Core/Src/main.c ****           directionDelay++;
 209:Core/Src/main.c ****         }
 210:Core/Src/main.c ****         else 
 211:Core/Src/main.c ****         { directionDelay = 0; }
 212:Core/Src/main.c **** 
 213:Core/Src/main.c ****         // Update display only if joystick direction has changed
 214:Core/Src/main.c ****         if (direction != JOY_IDLE && direction != lastDirection)
 215:Core/Src/main.c ****         {
 216:Core/Src/main.c ****           
 217:Core/Src/main.c ****           if (direction == JOY_UP)
 218:Core/Src/main.c ****           {
 219:Core/Src/main.c ****             LCD_Cls();
 220:Core/Src/main.c ****             snprintf(lineOne, sizeof(lineOne), "<1> player OR");
 221:Core/Src/main.c ****             snprintf(lineTwo, sizeof(lineTwo), "2 players?");
 222:Core/Src/main.c ****             displayOnLCD(lineOne, lineTwo);
 223:Core/Src/main.c ****             play.numPlayers = 1;
 224:Core/Src/main.c ****             direction = JOY_UP;
 225:Core/Src/main.c ****           }    
 226:Core/Src/main.c ****           else if (direction == JOY_DOWN) 
 227:Core/Src/main.c ****           {
 228:Core/Src/main.c ****             LCD_Cls();
 229:Core/Src/main.c ****             snprintf(lineOne, sizeof(lineOne), "1 player OR");
 230:Core/Src/main.c ****             snprintf(lineTwo, sizeof(lineTwo), "<2> players?");
 231:Core/Src/main.c ****             displayOnLCD(lineOne, lineTwo);
 232:Core/Src/main.c ****             play.numPlayers = 2;
 233:Core/Src/main.c ****           }
 234:Core/Src/main.c **** 
 235:Core/Src/main.c ****           lastDirection = direction;  // store last direction
 236:Core/Src/main.c ****         }   
 237:Core/Src/main.c **** 
 238:Core/Src/main.c ****         // Check if joystick is pressed to confirm selection
 239:Core/Src/main.c ****         // Move to the state which matches the mode selected
 240:Core/Src/main.c ****         if (Joystick_Pressed(&joystick)) 
 241:Core/Src/main.c ****         {
 242:Core/Src/main.c ****           if (play.numPlayers == 1)
 243:Core/Src/main.c ****             currentState = ONE_PLAYER;
 244:Core/Src/main.c ****           else 
 245:Core/Src/main.c ****             currentState = TWO_PLAYERS;
 246:Core/Src/main.c ****         }
 247:Core/Src/main.c ****         break;
 248:Core/Src/main.c ****       
 249:Core/Src/main.c ****         // For LCD+Joystick testing purposes only,
 250:Core/Src/main.c ****         // Display the mode type selected, wait 2 seconds then
 251:Core/Src/main.c ****         // return to the PLAYER SELECT state for further 
 252:Core/Src/main.c ****         // joystick to LCD interaction testing
 253:Core/Src/main.c ****       case ONE_PLAYER:
 254:Core/Src/main.c ****         LCD_Cls();
 255:Core/Src/main.c ****         snprintf(lineOne, sizeof(lineOne), "1 Player Mode");
 256:Core/Src/main.c ****         snprintf(lineTwo, sizeof(lineTwo), "");
 257:Core/Src/main.c ****         displayOnLCD(lineOne, lineTwo);
 258:Core/Src/main.c ****         HAL_Delay(2000);  //wait 2 seconds
 259:Core/Src/main.c ****         currentState = PLAYER_MENU;
 260:Core/Src/main.c ****         break;
 261:Core/Src/main.c **** 
 262:Core/Src/main.c ****       case TWO_PLAYERS:
ARM GAS  C:\Users\elhyd\AppData\Local\Temp\ccLVS8OV.s 			page 7


 263:Core/Src/main.c ****         LCD_Cls();
 264:Core/Src/main.c ****         snprintf(lineOne, sizeof(lineOne), "2 Player Mode");
 265:Core/Src/main.c ****         snprintf(lineTwo, sizeof(lineTwo), "");
 266:Core/Src/main.c ****         displayOnLCD(lineOne, lineTwo);
 267:Core/Src/main.c ****         HAL_Delay(2000);  //wait 2 seconds
 268:Core/Src/main.c ****         currentState = PLAYER_MENU;
 269:Core/Src/main.c ****         break;
 270:Core/Src/main.c ****       // case SCORES:
 271:Core/Src/main.c ****       //   // Handle scores display logic
 272:Core/Src/main.c ****       //   break;
 273:Core/Src/main.c ****       // case GAME_RESULT:
 274:Core/Src/main.c ****       //   // Handle game result logic
 275:Core/Src/main.c ****       //   break;
 276:Core/Src/main.c ****       default:
 277:Core/Src/main.c ****         currentState = START;
 278:Core/Src/main.c ****         break;
 279:Core/Src/main.c ****     }
 280:Core/Src/main.c ****   }
 281:Core/Src/main.c ****   /* USER CODE END 3 */
 282:Core/Src/main.c **** }
 283:Core/Src/main.c **** 
 284:Core/Src/main.c **** /**
 285:Core/Src/main.c ****   * @brief System Clock Configuration
 286:Core/Src/main.c ****   * @retval None
 287:Core/Src/main.c ****   */
 288:Core/Src/main.c **** void SystemClock_Config(void)
 289:Core/Src/main.c **** {
 290:Core/Src/main.c ****   RCC_OscInitTypeDef RCC_OscInitStruct = {0};
 291:Core/Src/main.c ****   RCC_ClkInitTypeDef RCC_ClkInitStruct = {0};
 292:Core/Src/main.c **** 
 293:Core/Src/main.c ****   /** Macro to configure the PLL multiplication factor
 294:Core/Src/main.c ****   */
 295:Core/Src/main.c ****   __HAL_RCC_PLL_PLLM_CONFIG(RCC_PLLM_DIV2);
 296:Core/Src/main.c **** 
 297:Core/Src/main.c ****   /** Macro to configure the PLL clock source
 298:Core/Src/main.c ****   */
 299:Core/Src/main.c ****   __HAL_RCC_PLL_PLLSOURCE_CONFIG(RCC_PLLSOURCE_MSI);
 300:Core/Src/main.c **** 
 301:Core/Src/main.c ****   /** Configure the main internal regulator output voltage
 302:Core/Src/main.c ****   */
 303:Core/Src/main.c ****   __HAL_PWR_VOLTAGESCALING_CONFIG(PWR_REGULATOR_VOLTAGE_SCALE1);
 304:Core/Src/main.c **** 
 305:Core/Src/main.c ****   /** Initializes the RCC Oscillators according to the specified parameters
 306:Core/Src/main.c ****   * in the RCC_OscInitTypeDef structure.
 307:Core/Src/main.c ****   */
 308:Core/Src/main.c ****   RCC_OscInitStruct.OscillatorType = RCC_OSCILLATORTYPE_HSI|RCC_OSCILLATORTYPE_MSI;
 309:Core/Src/main.c ****   RCC_OscInitStruct.HSIState = RCC_HSI_ON;
 310:Core/Src/main.c ****   RCC_OscInitStruct.MSIState = RCC_MSI_ON;
 311:Core/Src/main.c ****   RCC_OscInitStruct.HSICalibrationValue = RCC_HSICALIBRATION_DEFAULT;
 312:Core/Src/main.c ****   RCC_OscInitStruct.MSICalibrationValue = RCC_MSICALIBRATION_DEFAULT;
 313:Core/Src/main.c ****   RCC_OscInitStruct.MSIClockRange = RCC_MSIRANGE_10;
 314:Core/Src/main.c ****   RCC_OscInitStruct.PLL.PLLState = RCC_PLL_NONE;
 315:Core/Src/main.c ****   if (HAL_RCC_OscConfig(&RCC_OscInitStruct) != HAL_OK)
 316:Core/Src/main.c ****   {
 317:Core/Src/main.c ****     Error_Handler();
 318:Core/Src/main.c ****   }
 319:Core/Src/main.c **** 
ARM GAS  C:\Users\elhyd\AppData\Local\Temp\ccLVS8OV.s 			page 8


 320:Core/Src/main.c ****   /** Configure the SYSCLKSource, HCLK, PCLK1 and PCLK2 clocks dividers
 321:Core/Src/main.c ****   */
 322:Core/Src/main.c ****   RCC_ClkInitStruct.ClockType = RCC_CLOCKTYPE_HCLK4|RCC_CLOCKTYPE_HCLK2
 323:Core/Src/main.c ****                               |RCC_CLOCKTYPE_HCLK|RCC_CLOCKTYPE_SYSCLK
 324:Core/Src/main.c ****                               |RCC_CLOCKTYPE_PCLK1|RCC_CLOCKTYPE_PCLK2;
 325:Core/Src/main.c ****   RCC_ClkInitStruct.SYSCLKSource = RCC_SYSCLKSOURCE_MSI;
 326:Core/Src/main.c ****   RCC_ClkInitStruct.AHBCLKDivider = RCC_SYSCLK_DIV1;
 327:Core/Src/main.c ****   RCC_ClkInitStruct.APB1CLKDivider = RCC_HCLK_DIV1;
 328:Core/Src/main.c ****   RCC_ClkInitStruct.APB2CLKDivider = RCC_HCLK_DIV1;
 329:Core/Src/main.c ****   RCC_ClkInitStruct.AHBCLK2Divider = RCC_SYSCLK_DIV2;
 330:Core/Src/main.c ****   RCC_ClkInitStruct.AHBCLK4Divider = RCC_SYSCLK_DIV1;
 331:Core/Src/main.c **** 
 332:Core/Src/main.c ****   if (HAL_RCC_ClockConfig(&RCC_ClkInitStruct, FLASH_LATENCY_1) != HAL_OK)
 333:Core/Src/main.c ****   {
 334:Core/Src/main.c ****     Error_Handler();
 335:Core/Src/main.c ****   }
 336:Core/Src/main.c **** }
 337:Core/Src/main.c **** 
 338:Core/Src/main.c **** /**
 339:Core/Src/main.c ****   * @brief Peripherals Common Clock Configuration
 340:Core/Src/main.c ****   * @retval None
 341:Core/Src/main.c ****   */
 342:Core/Src/main.c **** void PeriphCommonClock_Config(void)
 343:Core/Src/main.c **** {
 344:Core/Src/main.c ****   RCC_PeriphCLKInitTypeDef PeriphClkInitStruct = {0};
 345:Core/Src/main.c **** 
 346:Core/Src/main.c ****   /** Initializes the peripherals clock
 347:Core/Src/main.c ****   */
 348:Core/Src/main.c ****   PeriphClkInitStruct.PeriphClockSelection = RCC_PERIPHCLK_SMPS;
 349:Core/Src/main.c ****   PeriphClkInitStruct.SmpsClockSelection = RCC_SMPSCLKSOURCE_HSI;
 350:Core/Src/main.c ****   PeriphClkInitStruct.SmpsDivSelection = RCC_SMPSCLKDIV_RANGE0;
 351:Core/Src/main.c **** 
 352:Core/Src/main.c ****   if (HAL_RCCEx_PeriphCLKConfig(&PeriphClkInitStruct) != HAL_OK)
 353:Core/Src/main.c ****   {
 354:Core/Src/main.c ****     Error_Handler();
 355:Core/Src/main.c ****   }
 356:Core/Src/main.c ****   /* USER CODE BEGIN Smps */
 357:Core/Src/main.c **** 
 358:Core/Src/main.c ****   /* USER CODE END Smps */
 359:Core/Src/main.c **** }
 360:Core/Src/main.c **** 
 361:Core/Src/main.c **** /* USER CODE BEGIN 4 */
 362:Core/Src/main.c **** 
 363:Core/Src/main.c **** /* USER CODE END 4 */
 364:Core/Src/main.c **** 
 365:Core/Src/main.c **** /**
 366:Core/Src/main.c ****   * @brief  This function is executed in case of error occurrence.
 367:Core/Src/main.c ****   * @retval None
 368:Core/Src/main.c ****   */
 369:Core/Src/main.c **** void Error_Handler(void)
 370:Core/Src/main.c **** {
  84              		.loc 1 370 1 is_stmt 1 view -0
  85              		.cfi_startproc
  86              		@ Volatile: function does not return.
  87              		@ args = 0, pretend = 0, frame = 0
  88              		@ frame_needed = 0, uses_anonymous_args = 0
  89              		@ link register save eliminated.
ARM GAS  C:\Users\elhyd\AppData\Local\Temp\ccLVS8OV.s 			page 9


 371:Core/Src/main.c ****   /* USER CODE BEGIN Error_Handler_Debug */
 372:Core/Src/main.c ****   /* User can add his own implementation to report the HAL error return state */
 373:Core/Src/main.c ****   __disable_irq();
  90              		.loc 1 373 3 view .LVU12
  91              	.LBB4:
  92              	.LBI4:
  93              		.file 2 "Drivers/CMSIS/Include/cmsis_gcc.h"
   1:Drivers/CMSIS/Include/cmsis_gcc.h **** /**************************************************************************//**
   2:Drivers/CMSIS/Include/cmsis_gcc.h ****  * @file     cmsis_gcc.h
   3:Drivers/CMSIS/Include/cmsis_gcc.h ****  * @brief    CMSIS compiler GCC header file
   4:Drivers/CMSIS/Include/cmsis_gcc.h ****  * @version  V5.2.0
   5:Drivers/CMSIS/Include/cmsis_gcc.h ****  * @date     08. May 2019
   6:Drivers/CMSIS/Include/cmsis_gcc.h ****  ******************************************************************************/
   7:Drivers/CMSIS/Include/cmsis_gcc.h **** /*
   8:Drivers/CMSIS/Include/cmsis_gcc.h ****  * Copyright (c) 2009-2019 Arm Limited. All rights reserved.
   9:Drivers/CMSIS/Include/cmsis_gcc.h ****  *
  10:Drivers/CMSIS/Include/cmsis_gcc.h ****  * SPDX-License-Identifier: Apache-2.0
  11:Drivers/CMSIS/Include/cmsis_gcc.h ****  *
  12:Drivers/CMSIS/Include/cmsis_gcc.h ****  * Licensed under the Apache License, Version 2.0 (the License); you may
  13:Drivers/CMSIS/Include/cmsis_gcc.h ****  * not use this file except in compliance with the License.
  14:Drivers/CMSIS/Include/cmsis_gcc.h ****  * You may obtain a copy of the License at
  15:Drivers/CMSIS/Include/cmsis_gcc.h ****  *
  16:Drivers/CMSIS/Include/cmsis_gcc.h ****  * www.apache.org/licenses/LICENSE-2.0
  17:Drivers/CMSIS/Include/cmsis_gcc.h ****  *
  18:Drivers/CMSIS/Include/cmsis_gcc.h ****  * Unless required by applicable law or agreed to in writing, software
  19:Drivers/CMSIS/Include/cmsis_gcc.h ****  * distributed under the License is distributed on an AS IS BASIS, WITHOUT
  20:Drivers/CMSIS/Include/cmsis_gcc.h ****  * WARRANTIES OR CONDITIONS OF ANY KIND, either express or implied.
  21:Drivers/CMSIS/Include/cmsis_gcc.h ****  * See the License for the specific language governing permissions and
  22:Drivers/CMSIS/Include/cmsis_gcc.h ****  * limitations under the License.
  23:Drivers/CMSIS/Include/cmsis_gcc.h ****  */
  24:Drivers/CMSIS/Include/cmsis_gcc.h **** 
  25:Drivers/CMSIS/Include/cmsis_gcc.h **** #ifndef __CMSIS_GCC_H
  26:Drivers/CMSIS/Include/cmsis_gcc.h **** #define __CMSIS_GCC_H
  27:Drivers/CMSIS/Include/cmsis_gcc.h **** 
  28:Drivers/CMSIS/Include/cmsis_gcc.h **** /* ignore some GCC warnings */
  29:Drivers/CMSIS/Include/cmsis_gcc.h **** #pragma GCC diagnostic push
  30:Drivers/CMSIS/Include/cmsis_gcc.h **** #pragma GCC diagnostic ignored "-Wsign-conversion"
  31:Drivers/CMSIS/Include/cmsis_gcc.h **** #pragma GCC diagnostic ignored "-Wconversion"
  32:Drivers/CMSIS/Include/cmsis_gcc.h **** #pragma GCC diagnostic ignored "-Wunused-parameter"
  33:Drivers/CMSIS/Include/cmsis_gcc.h **** 
  34:Drivers/CMSIS/Include/cmsis_gcc.h **** /* Fallback for __has_builtin */
  35:Drivers/CMSIS/Include/cmsis_gcc.h **** #ifndef __has_builtin
  36:Drivers/CMSIS/Include/cmsis_gcc.h ****   #define __has_builtin(x) (0)
  37:Drivers/CMSIS/Include/cmsis_gcc.h **** #endif
  38:Drivers/CMSIS/Include/cmsis_gcc.h **** 
  39:Drivers/CMSIS/Include/cmsis_gcc.h **** /* CMSIS compiler specific defines */
  40:Drivers/CMSIS/Include/cmsis_gcc.h **** #ifndef   __ASM
  41:Drivers/CMSIS/Include/cmsis_gcc.h ****   #define __ASM                                  __asm
  42:Drivers/CMSIS/Include/cmsis_gcc.h **** #endif
  43:Drivers/CMSIS/Include/cmsis_gcc.h **** #ifndef   __INLINE
  44:Drivers/CMSIS/Include/cmsis_gcc.h ****   #define __INLINE                               inline
  45:Drivers/CMSIS/Include/cmsis_gcc.h **** #endif
  46:Drivers/CMSIS/Include/cmsis_gcc.h **** #ifndef   __STATIC_INLINE
  47:Drivers/CMSIS/Include/cmsis_gcc.h ****   #define __STATIC_INLINE                        static inline
  48:Drivers/CMSIS/Include/cmsis_gcc.h **** #endif
  49:Drivers/CMSIS/Include/cmsis_gcc.h **** #ifndef   __STATIC_FORCEINLINE                 
  50:Drivers/CMSIS/Include/cmsis_gcc.h ****   #define __STATIC_FORCEINLINE                   __attribute__((always_inline)) static inline
ARM GAS  C:\Users\elhyd\AppData\Local\Temp\ccLVS8OV.s 			page 10


  51:Drivers/CMSIS/Include/cmsis_gcc.h **** #endif                                           
  52:Drivers/CMSIS/Include/cmsis_gcc.h **** #ifndef   __NO_RETURN
  53:Drivers/CMSIS/Include/cmsis_gcc.h ****   #define __NO_RETURN                            __attribute__((__noreturn__))
  54:Drivers/CMSIS/Include/cmsis_gcc.h **** #endif
  55:Drivers/CMSIS/Include/cmsis_gcc.h **** #ifndef   __USED
  56:Drivers/CMSIS/Include/cmsis_gcc.h ****   #define __USED                                 __attribute__((used))
  57:Drivers/CMSIS/Include/cmsis_gcc.h **** #endif
  58:Drivers/CMSIS/Include/cmsis_gcc.h **** #ifndef   __WEAK
  59:Drivers/CMSIS/Include/cmsis_gcc.h ****   #define __WEAK                                 __attribute__((weak))
  60:Drivers/CMSIS/Include/cmsis_gcc.h **** #endif
  61:Drivers/CMSIS/Include/cmsis_gcc.h **** #ifndef   __PACKED
  62:Drivers/CMSIS/Include/cmsis_gcc.h ****   #define __PACKED                               __attribute__((packed, aligned(1)))
  63:Drivers/CMSIS/Include/cmsis_gcc.h **** #endif
  64:Drivers/CMSIS/Include/cmsis_gcc.h **** #ifndef   __PACKED_STRUCT
  65:Drivers/CMSIS/Include/cmsis_gcc.h ****   #define __PACKED_STRUCT                        struct __attribute__((packed, aligned(1)))
  66:Drivers/CMSIS/Include/cmsis_gcc.h **** #endif
  67:Drivers/CMSIS/Include/cmsis_gcc.h **** #ifndef   __PACKED_UNION
  68:Drivers/CMSIS/Include/cmsis_gcc.h ****   #define __PACKED_UNION                         union __attribute__((packed, aligned(1)))
  69:Drivers/CMSIS/Include/cmsis_gcc.h **** #endif
  70:Drivers/CMSIS/Include/cmsis_gcc.h **** #ifndef   __UNALIGNED_UINT32        /* deprecated */
  71:Drivers/CMSIS/Include/cmsis_gcc.h ****   #pragma GCC diagnostic push
  72:Drivers/CMSIS/Include/cmsis_gcc.h ****   #pragma GCC diagnostic ignored "-Wpacked"
  73:Drivers/CMSIS/Include/cmsis_gcc.h ****   #pragma GCC diagnostic ignored "-Wattributes"
  74:Drivers/CMSIS/Include/cmsis_gcc.h ****   struct __attribute__((packed)) T_UINT32 { uint32_t v; };
  75:Drivers/CMSIS/Include/cmsis_gcc.h ****   #pragma GCC diagnostic pop
  76:Drivers/CMSIS/Include/cmsis_gcc.h ****   #define __UNALIGNED_UINT32(x)                  (((struct T_UINT32 *)(x))->v)
  77:Drivers/CMSIS/Include/cmsis_gcc.h **** #endif
  78:Drivers/CMSIS/Include/cmsis_gcc.h **** #ifndef   __UNALIGNED_UINT16_WRITE
  79:Drivers/CMSIS/Include/cmsis_gcc.h ****   #pragma GCC diagnostic push
  80:Drivers/CMSIS/Include/cmsis_gcc.h ****   #pragma GCC diagnostic ignored "-Wpacked"
  81:Drivers/CMSIS/Include/cmsis_gcc.h ****   #pragma GCC diagnostic ignored "-Wattributes"
  82:Drivers/CMSIS/Include/cmsis_gcc.h ****   __PACKED_STRUCT T_UINT16_WRITE { uint16_t v; };
  83:Drivers/CMSIS/Include/cmsis_gcc.h ****   #pragma GCC diagnostic pop
  84:Drivers/CMSIS/Include/cmsis_gcc.h ****   #define __UNALIGNED_UINT16_WRITE(addr, val)    (void)((((struct T_UINT16_WRITE *)(void *)(addr))-
  85:Drivers/CMSIS/Include/cmsis_gcc.h **** #endif
  86:Drivers/CMSIS/Include/cmsis_gcc.h **** #ifndef   __UNALIGNED_UINT16_READ
  87:Drivers/CMSIS/Include/cmsis_gcc.h ****   #pragma GCC diagnostic push
  88:Drivers/CMSIS/Include/cmsis_gcc.h ****   #pragma GCC diagnostic ignored "-Wpacked"
  89:Drivers/CMSIS/Include/cmsis_gcc.h ****   #pragma GCC diagnostic ignored "-Wattributes"
  90:Drivers/CMSIS/Include/cmsis_gcc.h ****   __PACKED_STRUCT T_UINT16_READ { uint16_t v; };
  91:Drivers/CMSIS/Include/cmsis_gcc.h ****   #pragma GCC diagnostic pop
  92:Drivers/CMSIS/Include/cmsis_gcc.h ****   #define __UNALIGNED_UINT16_READ(addr)          (((const struct T_UINT16_READ *)(const void *)(add
  93:Drivers/CMSIS/Include/cmsis_gcc.h **** #endif
  94:Drivers/CMSIS/Include/cmsis_gcc.h **** #ifndef   __UNALIGNED_UINT32_WRITE
  95:Drivers/CMSIS/Include/cmsis_gcc.h ****   #pragma GCC diagnostic push
  96:Drivers/CMSIS/Include/cmsis_gcc.h ****   #pragma GCC diagnostic ignored "-Wpacked"
  97:Drivers/CMSIS/Include/cmsis_gcc.h ****   #pragma GCC diagnostic ignored "-Wattributes"
  98:Drivers/CMSIS/Include/cmsis_gcc.h ****   __PACKED_STRUCT T_UINT32_WRITE { uint32_t v; };
  99:Drivers/CMSIS/Include/cmsis_gcc.h ****   #pragma GCC diagnostic pop
 100:Drivers/CMSIS/Include/cmsis_gcc.h ****   #define __UNALIGNED_UINT32_WRITE(addr, val)    (void)((((struct T_UINT32_WRITE *)(void *)(addr))-
 101:Drivers/CMSIS/Include/cmsis_gcc.h **** #endif
 102:Drivers/CMSIS/Include/cmsis_gcc.h **** #ifndef   __UNALIGNED_UINT32_READ
 103:Drivers/CMSIS/Include/cmsis_gcc.h ****   #pragma GCC diagnostic push
 104:Drivers/CMSIS/Include/cmsis_gcc.h ****   #pragma GCC diagnostic ignored "-Wpacked"
 105:Drivers/CMSIS/Include/cmsis_gcc.h ****   #pragma GCC diagnostic ignored "-Wattributes"
 106:Drivers/CMSIS/Include/cmsis_gcc.h ****   __PACKED_STRUCT T_UINT32_READ { uint32_t v; };
 107:Drivers/CMSIS/Include/cmsis_gcc.h ****   #pragma GCC diagnostic pop
ARM GAS  C:\Users\elhyd\AppData\Local\Temp\ccLVS8OV.s 			page 11


 108:Drivers/CMSIS/Include/cmsis_gcc.h ****   #define __UNALIGNED_UINT32_READ(addr)          (((const struct T_UINT32_READ *)(const void *)(add
 109:Drivers/CMSIS/Include/cmsis_gcc.h **** #endif
 110:Drivers/CMSIS/Include/cmsis_gcc.h **** #ifndef   __ALIGNED
 111:Drivers/CMSIS/Include/cmsis_gcc.h ****   #define __ALIGNED(x)                           __attribute__((aligned(x)))
 112:Drivers/CMSIS/Include/cmsis_gcc.h **** #endif
 113:Drivers/CMSIS/Include/cmsis_gcc.h **** #ifndef   __RESTRICT
 114:Drivers/CMSIS/Include/cmsis_gcc.h ****   #define __RESTRICT                             __restrict
 115:Drivers/CMSIS/Include/cmsis_gcc.h **** #endif
 116:Drivers/CMSIS/Include/cmsis_gcc.h **** #ifndef   __COMPILER_BARRIER
 117:Drivers/CMSIS/Include/cmsis_gcc.h ****   #define __COMPILER_BARRIER()                   __ASM volatile("":::"memory")
 118:Drivers/CMSIS/Include/cmsis_gcc.h **** #endif
 119:Drivers/CMSIS/Include/cmsis_gcc.h **** 
 120:Drivers/CMSIS/Include/cmsis_gcc.h **** /* #########################  Startup and Lowlevel Init  ######################## */
 121:Drivers/CMSIS/Include/cmsis_gcc.h **** 
 122:Drivers/CMSIS/Include/cmsis_gcc.h **** #ifndef __PROGRAM_START
 123:Drivers/CMSIS/Include/cmsis_gcc.h **** 
 124:Drivers/CMSIS/Include/cmsis_gcc.h **** /**
 125:Drivers/CMSIS/Include/cmsis_gcc.h ****   \brief   Initializes data and bss sections
 126:Drivers/CMSIS/Include/cmsis_gcc.h ****   \details This default implementations initialized all data and additional bss
 127:Drivers/CMSIS/Include/cmsis_gcc.h ****            sections relying on .copy.table and .zero.table specified properly
 128:Drivers/CMSIS/Include/cmsis_gcc.h ****            in the used linker script.
 129:Drivers/CMSIS/Include/cmsis_gcc.h ****   
 130:Drivers/CMSIS/Include/cmsis_gcc.h ****  */
 131:Drivers/CMSIS/Include/cmsis_gcc.h **** __STATIC_FORCEINLINE __NO_RETURN void __cmsis_start(void)
 132:Drivers/CMSIS/Include/cmsis_gcc.h **** {
 133:Drivers/CMSIS/Include/cmsis_gcc.h ****   extern void _start(void) __NO_RETURN;
 134:Drivers/CMSIS/Include/cmsis_gcc.h ****   
 135:Drivers/CMSIS/Include/cmsis_gcc.h ****   typedef struct {
 136:Drivers/CMSIS/Include/cmsis_gcc.h ****     uint32_t const* src;
 137:Drivers/CMSIS/Include/cmsis_gcc.h ****     uint32_t* dest;
 138:Drivers/CMSIS/Include/cmsis_gcc.h ****     uint32_t  wlen;
 139:Drivers/CMSIS/Include/cmsis_gcc.h ****   } __copy_table_t;
 140:Drivers/CMSIS/Include/cmsis_gcc.h ****   
 141:Drivers/CMSIS/Include/cmsis_gcc.h ****   typedef struct {
 142:Drivers/CMSIS/Include/cmsis_gcc.h ****     uint32_t* dest;
 143:Drivers/CMSIS/Include/cmsis_gcc.h ****     uint32_t  wlen;
 144:Drivers/CMSIS/Include/cmsis_gcc.h ****   } __zero_table_t;
 145:Drivers/CMSIS/Include/cmsis_gcc.h ****   
 146:Drivers/CMSIS/Include/cmsis_gcc.h ****   extern const __copy_table_t __copy_table_start__;
 147:Drivers/CMSIS/Include/cmsis_gcc.h ****   extern const __copy_table_t __copy_table_end__;
 148:Drivers/CMSIS/Include/cmsis_gcc.h ****   extern const __zero_table_t __zero_table_start__;
 149:Drivers/CMSIS/Include/cmsis_gcc.h ****   extern const __zero_table_t __zero_table_end__;
 150:Drivers/CMSIS/Include/cmsis_gcc.h **** 
 151:Drivers/CMSIS/Include/cmsis_gcc.h ****   for (__copy_table_t const* pTable = &__copy_table_start__; pTable < &__copy_table_end__; ++pTable
 152:Drivers/CMSIS/Include/cmsis_gcc.h ****     for(uint32_t i=0u; i<pTable->wlen; ++i) {
 153:Drivers/CMSIS/Include/cmsis_gcc.h ****       pTable->dest[i] = pTable->src[i];
 154:Drivers/CMSIS/Include/cmsis_gcc.h ****     }
 155:Drivers/CMSIS/Include/cmsis_gcc.h ****   }
 156:Drivers/CMSIS/Include/cmsis_gcc.h ****  
 157:Drivers/CMSIS/Include/cmsis_gcc.h ****   for (__zero_table_t const* pTable = &__zero_table_start__; pTable < &__zero_table_end__; ++pTable
 158:Drivers/CMSIS/Include/cmsis_gcc.h ****     for(uint32_t i=0u; i<pTable->wlen; ++i) {
 159:Drivers/CMSIS/Include/cmsis_gcc.h ****       pTable->dest[i] = 0u;
 160:Drivers/CMSIS/Include/cmsis_gcc.h ****     }
 161:Drivers/CMSIS/Include/cmsis_gcc.h ****   }
 162:Drivers/CMSIS/Include/cmsis_gcc.h ****  
 163:Drivers/CMSIS/Include/cmsis_gcc.h ****   _start();
 164:Drivers/CMSIS/Include/cmsis_gcc.h **** }
ARM GAS  C:\Users\elhyd\AppData\Local\Temp\ccLVS8OV.s 			page 12


 165:Drivers/CMSIS/Include/cmsis_gcc.h ****   
 166:Drivers/CMSIS/Include/cmsis_gcc.h **** #define __PROGRAM_START           __cmsis_start
 167:Drivers/CMSIS/Include/cmsis_gcc.h **** #endif
 168:Drivers/CMSIS/Include/cmsis_gcc.h **** 
 169:Drivers/CMSIS/Include/cmsis_gcc.h **** #ifndef __INITIAL_SP
 170:Drivers/CMSIS/Include/cmsis_gcc.h **** #define __INITIAL_SP              __StackTop
 171:Drivers/CMSIS/Include/cmsis_gcc.h **** #endif
 172:Drivers/CMSIS/Include/cmsis_gcc.h **** 
 173:Drivers/CMSIS/Include/cmsis_gcc.h **** #ifndef __STACK_LIMIT
 174:Drivers/CMSIS/Include/cmsis_gcc.h **** #define __STACK_LIMIT             __StackLimit
 175:Drivers/CMSIS/Include/cmsis_gcc.h **** #endif
 176:Drivers/CMSIS/Include/cmsis_gcc.h **** 
 177:Drivers/CMSIS/Include/cmsis_gcc.h **** #ifndef __VECTOR_TABLE
 178:Drivers/CMSIS/Include/cmsis_gcc.h **** #define __VECTOR_TABLE            __Vectors
 179:Drivers/CMSIS/Include/cmsis_gcc.h **** #endif
 180:Drivers/CMSIS/Include/cmsis_gcc.h **** 
 181:Drivers/CMSIS/Include/cmsis_gcc.h **** #ifndef __VECTOR_TABLE_ATTRIBUTE
 182:Drivers/CMSIS/Include/cmsis_gcc.h **** #define __VECTOR_TABLE_ATTRIBUTE  __attribute((used, section(".vectors")))
 183:Drivers/CMSIS/Include/cmsis_gcc.h **** #endif
 184:Drivers/CMSIS/Include/cmsis_gcc.h **** 
 185:Drivers/CMSIS/Include/cmsis_gcc.h **** /* ###########################  Core Function Access  ########################### */
 186:Drivers/CMSIS/Include/cmsis_gcc.h **** /** \ingroup  CMSIS_Core_FunctionInterface
 187:Drivers/CMSIS/Include/cmsis_gcc.h ****     \defgroup CMSIS_Core_RegAccFunctions CMSIS Core Register Access Functions
 188:Drivers/CMSIS/Include/cmsis_gcc.h ****   @{
 189:Drivers/CMSIS/Include/cmsis_gcc.h ****  */
 190:Drivers/CMSIS/Include/cmsis_gcc.h **** 
 191:Drivers/CMSIS/Include/cmsis_gcc.h **** /**
 192:Drivers/CMSIS/Include/cmsis_gcc.h ****   \brief   Enable IRQ Interrupts
 193:Drivers/CMSIS/Include/cmsis_gcc.h ****   \details Enables IRQ interrupts by clearing the I-bit in the CPSR.
 194:Drivers/CMSIS/Include/cmsis_gcc.h ****            Can only be executed in Privileged modes.
 195:Drivers/CMSIS/Include/cmsis_gcc.h ****  */
 196:Drivers/CMSIS/Include/cmsis_gcc.h **** __STATIC_FORCEINLINE void __enable_irq(void)
 197:Drivers/CMSIS/Include/cmsis_gcc.h **** {
 198:Drivers/CMSIS/Include/cmsis_gcc.h ****   __ASM volatile ("cpsie i" : : : "memory");
 199:Drivers/CMSIS/Include/cmsis_gcc.h **** }
 200:Drivers/CMSIS/Include/cmsis_gcc.h **** 
 201:Drivers/CMSIS/Include/cmsis_gcc.h **** 
 202:Drivers/CMSIS/Include/cmsis_gcc.h **** /**
 203:Drivers/CMSIS/Include/cmsis_gcc.h ****   \brief   Disable IRQ Interrupts
 204:Drivers/CMSIS/Include/cmsis_gcc.h ****   \details Disables IRQ interrupts by setting the I-bit in the CPSR.
 205:Drivers/CMSIS/Include/cmsis_gcc.h ****            Can only be executed in Privileged modes.
 206:Drivers/CMSIS/Include/cmsis_gcc.h ****  */
 207:Drivers/CMSIS/Include/cmsis_gcc.h **** __STATIC_FORCEINLINE void __disable_irq(void)
  94              		.loc 2 207 27 view .LVU13
  95              	.LBB5:
 208:Drivers/CMSIS/Include/cmsis_gcc.h **** {
 209:Drivers/CMSIS/Include/cmsis_gcc.h ****   __ASM volatile ("cpsid i" : : : "memory");
  96              		.loc 2 209 3 view .LVU14
  97              		.syntax unified
  98              	@ 209 "Drivers/CMSIS/Include/cmsis_gcc.h" 1
  99 0000 72B6     		cpsid i
 100              	@ 0 "" 2
 101              		.thumb
 102              		.syntax unified
 103              	.L4:
 104              	.LBE5:
 105              	.LBE4:
ARM GAS  C:\Users\elhyd\AppData\Local\Temp\ccLVS8OV.s 			page 13


 374:Core/Src/main.c ****   while (1)
 106              		.loc 1 374 3 view .LVU15
 375:Core/Src/main.c ****   {
 376:Core/Src/main.c ****   }
 107              		.loc 1 376 3 view .LVU16
 374:Core/Src/main.c ****   while (1)
 108              		.loc 1 374 9 view .LVU17
 109 0002 FEE7     		b	.L4
 110              		.cfi_endproc
 111              	.LFE1111:
 113              		.section	.text.SystemClock_Config,"ax",%progbits
 114              		.align	1
 115              		.global	SystemClock_Config
 116              		.syntax unified
 117              		.thumb
 118              		.thumb_func
 120              	SystemClock_Config:
 121              	.LFB1109:
 289:Core/Src/main.c ****   RCC_OscInitTypeDef RCC_OscInitStruct = {0};
 122              		.loc 1 289 1 view -0
 123              		.cfi_startproc
 124              		@ args = 0, pretend = 0, frame = 104
 125              		@ frame_needed = 0, uses_anonymous_args = 0
 126 0000 10B5     		push	{r4, lr}
 127              		.cfi_def_cfa_offset 8
 128              		.cfi_offset 4, -8
 129              		.cfi_offset 14, -4
 130 0002 9AB0     		sub	sp, sp, #104
 131              		.cfi_def_cfa_offset 112
 290:Core/Src/main.c ****   RCC_ClkInitTypeDef RCC_ClkInitStruct = {0};
 132              		.loc 1 290 3 view .LVU19
 290:Core/Src/main.c ****   RCC_ClkInitTypeDef RCC_ClkInitStruct = {0};
 133              		.loc 1 290 22 is_stmt 0 view .LVU20
 134 0004 08AC     		add	r4, sp, #32
 135 0006 4822     		movs	r2, #72
 136 0008 0021     		movs	r1, #0
 137 000a 2046     		mov	r0, r4
 138 000c FFF7FEFF 		bl	memset
 139              	.LVL8:
 291:Core/Src/main.c **** 
 140              		.loc 1 291 3 is_stmt 1 view .LVU21
 291:Core/Src/main.c **** 
 141              		.loc 1 291 22 is_stmt 0 view .LVU22
 142 0010 0023     		movs	r3, #0
 143 0012 0193     		str	r3, [sp, #4]
 144 0014 0293     		str	r3, [sp, #8]
 145 0016 0393     		str	r3, [sp, #12]
 146 0018 0493     		str	r3, [sp, #16]
 147 001a 0593     		str	r3, [sp, #20]
 148 001c 0693     		str	r3, [sp, #24]
 149 001e 0793     		str	r3, [sp, #28]
 295:Core/Src/main.c **** 
 150              		.loc 1 295 3 is_stmt 1 view .LVU23
 151 0020 4FF0B041 		mov	r1, #1476395008
 152 0024 CA68     		ldr	r2, [r1, #12]
 153 0026 22F07002 		bic	r2, r2, #112
 154 002a 42F01002 		orr	r2, r2, #16
ARM GAS  C:\Users\elhyd\AppData\Local\Temp\ccLVS8OV.s 			page 14


 155 002e CA60     		str	r2, [r1, #12]
 299:Core/Src/main.c **** 
 156              		.loc 1 299 3 view .LVU24
 157 0030 CA68     		ldr	r2, [r1, #12]
 158 0032 22F00302 		bic	r2, r2, #3
 159 0036 42F00102 		orr	r2, r2, #1
 160 003a CA60     		str	r2, [r1, #12]
 303:Core/Src/main.c **** 
 161              		.loc 1 303 3 view .LVU25
 162              	.LBB6:
 303:Core/Src/main.c **** 
 163              		.loc 1 303 3 view .LVU26
 303:Core/Src/main.c **** 
 164              		.loc 1 303 3 view .LVU27
 165 003c 01F58061 		add	r1, r1, #1024
 166 0040 0A68     		ldr	r2, [r1]
 167 0042 22F4C062 		bic	r2, r2, #1536
 168 0046 42F40072 		orr	r2, r2, #512
 169 004a 0A60     		str	r2, [r1]
 303:Core/Src/main.c **** 
 170              		.loc 1 303 3 view .LVU28
 171 004c 0A68     		ldr	r2, [r1]
 172 004e 02F4C062 		and	r2, r2, #1536
 173 0052 0092     		str	r2, [sp]
 303:Core/Src/main.c **** 
 174              		.loc 1 303 3 view .LVU29
 175 0054 009A     		ldr	r2, [sp]
 176              	.LBE6:
 303:Core/Src/main.c **** 
 177              		.loc 1 303 3 view .LVU30
 308:Core/Src/main.c ****   RCC_OscInitStruct.HSIState = RCC_HSI_ON;
 178              		.loc 1 308 3 view .LVU31
 308:Core/Src/main.c ****   RCC_OscInitStruct.HSIState = RCC_HSI_ON;
 179              		.loc 1 308 36 is_stmt 0 view .LVU32
 180 0056 2222     		movs	r2, #34
 181 0058 0892     		str	r2, [sp, #32]
 309:Core/Src/main.c ****   RCC_OscInitStruct.MSIState = RCC_MSI_ON;
 182              		.loc 1 309 3 is_stmt 1 view .LVU33
 309:Core/Src/main.c ****   RCC_OscInitStruct.MSIState = RCC_MSI_ON;
 183              		.loc 1 309 30 is_stmt 0 view .LVU34
 184 005a 4FF48072 		mov	r2, #256
 185 005e 0B92     		str	r2, [sp, #44]
 310:Core/Src/main.c ****   RCC_OscInitStruct.HSICalibrationValue = RCC_HSICALIBRATION_DEFAULT;
 186              		.loc 1 310 3 is_stmt 1 view .LVU35
 310:Core/Src/main.c ****   RCC_OscInitStruct.HSICalibrationValue = RCC_HSICALIBRATION_DEFAULT;
 187              		.loc 1 310 30 is_stmt 0 view .LVU36
 188 0060 0122     		movs	r2, #1
 189 0062 0F92     		str	r2, [sp, #60]
 311:Core/Src/main.c ****   RCC_OscInitStruct.MSICalibrationValue = RCC_MSICALIBRATION_DEFAULT;
 190              		.loc 1 311 3 is_stmt 1 view .LVU37
 311:Core/Src/main.c ****   RCC_OscInitStruct.MSICalibrationValue = RCC_MSICALIBRATION_DEFAULT;
 191              		.loc 1 311 41 is_stmt 0 view .LVU38
 192 0064 4022     		movs	r2, #64
 193 0066 0C92     		str	r2, [sp, #48]
 312:Core/Src/main.c ****   RCC_OscInitStruct.MSIClockRange = RCC_MSIRANGE_10;
 194              		.loc 1 312 3 is_stmt 1 view .LVU39
 312:Core/Src/main.c ****   RCC_OscInitStruct.MSIClockRange = RCC_MSIRANGE_10;
ARM GAS  C:\Users\elhyd\AppData\Local\Temp\ccLVS8OV.s 			page 15


 195              		.loc 1 312 41 is_stmt 0 view .LVU40
 196 0068 1093     		str	r3, [sp, #64]
 313:Core/Src/main.c ****   RCC_OscInitStruct.PLL.PLLState = RCC_PLL_NONE;
 197              		.loc 1 313 3 is_stmt 1 view .LVU41
 313:Core/Src/main.c ****   RCC_OscInitStruct.PLL.PLLState = RCC_PLL_NONE;
 198              		.loc 1 313 35 is_stmt 0 view .LVU42
 199 006a A022     		movs	r2, #160
 200 006c 1192     		str	r2, [sp, #68]
 314:Core/Src/main.c ****   if (HAL_RCC_OscConfig(&RCC_OscInitStruct) != HAL_OK)
 201              		.loc 1 314 3 is_stmt 1 view .LVU43
 314:Core/Src/main.c ****   if (HAL_RCC_OscConfig(&RCC_OscInitStruct) != HAL_OK)
 202              		.loc 1 314 34 is_stmt 0 view .LVU44
 203 006e 1393     		str	r3, [sp, #76]
 315:Core/Src/main.c ****   {
 204              		.loc 1 315 3 is_stmt 1 view .LVU45
 315:Core/Src/main.c ****   {
 205              		.loc 1 315 7 is_stmt 0 view .LVU46
 206 0070 2046     		mov	r0, r4
 207 0072 FFF7FEFF 		bl	HAL_RCC_OscConfig
 208              	.LVL9:
 315:Core/Src/main.c ****   {
 209              		.loc 1 315 6 discriminator 1 view .LVU47
 210 0076 80B9     		cbnz	r0, .L9
 322:Core/Src/main.c ****                               |RCC_CLOCKTYPE_HCLK|RCC_CLOCKTYPE_SYSCLK
 211              		.loc 1 322 3 is_stmt 1 view .LVU48
 322:Core/Src/main.c ****                               |RCC_CLOCKTYPE_HCLK|RCC_CLOCKTYPE_SYSCLK
 212              		.loc 1 322 31 is_stmt 0 view .LVU49
 213 0078 6F23     		movs	r3, #111
 214 007a 0193     		str	r3, [sp, #4]
 325:Core/Src/main.c ****   RCC_ClkInitStruct.AHBCLKDivider = RCC_SYSCLK_DIV1;
 215              		.loc 1 325 3 is_stmt 1 view .LVU50
 325:Core/Src/main.c ****   RCC_ClkInitStruct.AHBCLKDivider = RCC_SYSCLK_DIV1;
 216              		.loc 1 325 34 is_stmt 0 view .LVU51
 217 007c 0023     		movs	r3, #0
 218 007e 0293     		str	r3, [sp, #8]
 326:Core/Src/main.c ****   RCC_ClkInitStruct.APB1CLKDivider = RCC_HCLK_DIV1;
 219              		.loc 1 326 3 is_stmt 1 view .LVU52
 326:Core/Src/main.c ****   RCC_ClkInitStruct.APB1CLKDivider = RCC_HCLK_DIV1;
 220              		.loc 1 326 35 is_stmt 0 view .LVU53
 221 0080 0393     		str	r3, [sp, #12]
 327:Core/Src/main.c ****   RCC_ClkInitStruct.APB2CLKDivider = RCC_HCLK_DIV1;
 222              		.loc 1 327 3 is_stmt 1 view .LVU54
 327:Core/Src/main.c ****   RCC_ClkInitStruct.APB2CLKDivider = RCC_HCLK_DIV1;
 223              		.loc 1 327 36 is_stmt 0 view .LVU55
 224 0082 0493     		str	r3, [sp, #16]
 328:Core/Src/main.c ****   RCC_ClkInitStruct.AHBCLK2Divider = RCC_SYSCLK_DIV2;
 225              		.loc 1 328 3 is_stmt 1 view .LVU56
 328:Core/Src/main.c ****   RCC_ClkInitStruct.AHBCLK2Divider = RCC_SYSCLK_DIV2;
 226              		.loc 1 328 36 is_stmt 0 view .LVU57
 227 0084 0593     		str	r3, [sp, #20]
 329:Core/Src/main.c ****   RCC_ClkInitStruct.AHBCLK4Divider = RCC_SYSCLK_DIV1;
 228              		.loc 1 329 3 is_stmt 1 view .LVU58
 329:Core/Src/main.c ****   RCC_ClkInitStruct.AHBCLK4Divider = RCC_SYSCLK_DIV1;
 229              		.loc 1 329 36 is_stmt 0 view .LVU59
 230 0086 8022     		movs	r2, #128
 231 0088 0692     		str	r2, [sp, #24]
 330:Core/Src/main.c **** 
ARM GAS  C:\Users\elhyd\AppData\Local\Temp\ccLVS8OV.s 			page 16


 232              		.loc 1 330 3 is_stmt 1 view .LVU60
 330:Core/Src/main.c **** 
 233              		.loc 1 330 36 is_stmt 0 view .LVU61
 234 008a 0793     		str	r3, [sp, #28]
 332:Core/Src/main.c ****   {
 235              		.loc 1 332 3 is_stmt 1 view .LVU62
 332:Core/Src/main.c ****   {
 236              		.loc 1 332 7 is_stmt 0 view .LVU63
 237 008c 0121     		movs	r1, #1
 238 008e 01A8     		add	r0, sp, #4
 239 0090 FFF7FEFF 		bl	HAL_RCC_ClockConfig
 240              	.LVL10:
 332:Core/Src/main.c ****   {
 241              		.loc 1 332 6 discriminator 1 view .LVU64
 242 0094 18B9     		cbnz	r0, .L10
 336:Core/Src/main.c **** 
 243              		.loc 1 336 1 view .LVU65
 244 0096 1AB0     		add	sp, sp, #104
 245              		.cfi_remember_state
 246              		.cfi_def_cfa_offset 8
 247              		@ sp needed
 248 0098 10BD     		pop	{r4, pc}
 249              	.L9:
 250              		.cfi_restore_state
 317:Core/Src/main.c ****   }
 251              		.loc 1 317 5 is_stmt 1 view .LVU66
 252 009a FFF7FEFF 		bl	Error_Handler
 253              	.LVL11:
 254              	.L10:
 334:Core/Src/main.c ****   }
 255              		.loc 1 334 5 view .LVU67
 256 009e FFF7FEFF 		bl	Error_Handler
 257              	.LVL12:
 258              		.cfi_endproc
 259              	.LFE1109:
 261              		.section	.text.PeriphCommonClock_Config,"ax",%progbits
 262              		.align	1
 263              		.global	PeriphCommonClock_Config
 264              		.syntax unified
 265              		.thumb
 266              		.thumb_func
 268              	PeriphCommonClock_Config:
 269              	.LFB1110:
 343:Core/Src/main.c ****   RCC_PeriphCLKInitTypeDef PeriphClkInitStruct = {0};
 270              		.loc 1 343 1 view -0
 271              		.cfi_startproc
 272              		@ args = 0, pretend = 0, frame = 80
 273              		@ frame_needed = 0, uses_anonymous_args = 0
 274 0000 10B5     		push	{r4, lr}
 275              		.cfi_def_cfa_offset 8
 276              		.cfi_offset 4, -8
 277              		.cfi_offset 14, -4
 278 0002 94B0     		sub	sp, sp, #80
 279              		.cfi_def_cfa_offset 88
 344:Core/Src/main.c **** 
 280              		.loc 1 344 3 view .LVU69
 344:Core/Src/main.c **** 
ARM GAS  C:\Users\elhyd\AppData\Local\Temp\ccLVS8OV.s 			page 17


 281              		.loc 1 344 28 is_stmt 0 view .LVU70
 282 0004 5022     		movs	r2, #80
 283 0006 0021     		movs	r1, #0
 284 0008 6846     		mov	r0, sp
 285 000a FFF7FEFF 		bl	memset
 286              	.LVL13:
 348:Core/Src/main.c ****   PeriphClkInitStruct.SmpsClockSelection = RCC_SMPSCLKSOURCE_HSI;
 287              		.loc 1 348 3 is_stmt 1 view .LVU71
 348:Core/Src/main.c ****   PeriphClkInitStruct.SmpsClockSelection = RCC_SMPSCLKSOURCE_HSI;
 288              		.loc 1 348 44 is_stmt 0 view .LVU72
 289 000e 4FF40053 		mov	r3, #8192
 290 0012 0093     		str	r3, [sp]
 349:Core/Src/main.c ****   PeriphClkInitStruct.SmpsDivSelection = RCC_SMPSCLKDIV_RANGE0;
 291              		.loc 1 349 3 is_stmt 1 view .LVU73
 350:Core/Src/main.c **** 
 292              		.loc 1 350 3 view .LVU74
 352:Core/Src/main.c ****   {
 293              		.loc 1 352 3 view .LVU75
 352:Core/Src/main.c ****   {
 294              		.loc 1 352 7 is_stmt 0 view .LVU76
 295 0014 6846     		mov	r0, sp
 296 0016 FFF7FEFF 		bl	HAL_RCCEx_PeriphCLKConfig
 297              	.LVL14:
 352:Core/Src/main.c ****   {
 298              		.loc 1 352 6 discriminator 1 view .LVU77
 299 001a 08B9     		cbnz	r0, .L14
 359:Core/Src/main.c **** 
 300              		.loc 1 359 1 view .LVU78
 301 001c 14B0     		add	sp, sp, #80
 302              		.cfi_remember_state
 303              		.cfi_def_cfa_offset 8
 304              		@ sp needed
 305 001e 10BD     		pop	{r4, pc}
 306              	.L14:
 307              		.cfi_restore_state
 354:Core/Src/main.c ****   }
 308              		.loc 1 354 5 is_stmt 1 view .LVU79
 309 0020 FFF7FEFF 		bl	Error_Handler
 310              	.LVL15:
 311              		.cfi_endproc
 312              	.LFE1110:
 314              		.section	.rodata.main.str1.4,"aMS",%progbits,1
 315              		.align	2
 316              	.LC0:
 317 0000 57656C63 		.ascii	"Welcome to the\000"
 317      6F6D6520 
 317      746F2074 
 317      686500
 318 000f 00       		.align	2
 319              	.LC1:
 320 0010 53696D6F 		.ascii	"Simon Game\000"
 320      6E204761 
 320      6D6500
 321 001b 00       		.align	2
 322              	.LC2:
 323 001c 50757368 		.ascii	"Push To Start!\000"
 323      20546F20 
ARM GAS  C:\Users\elhyd\AppData\Local\Temp\ccLVS8OV.s 			page 18


 323      53746172 
 323      742100
 324 002b 00       		.align	2
 325              	.LC3:
 326 002c 3120706C 		.ascii	"1 player OR\000"
 326      61796572 
 326      204F5200 
 327              		.align	2
 328              	.LC4:
 329 0038 3220706C 		.ascii	"2 players?\000"
 329      61796572 
 329      733F00
 330 0043 00       		.align	2
 331              	.LC5:
 332 0044 3C313E20 		.ascii	"<1> player OR\000"
 332      706C6179 
 332      6572204F 
 332      5200
 333 0052 0000     		.align	2
 334              	.LC6:
 335 0054 3C323E20 		.ascii	"<2> players?\000"
 335      706C6179 
 335      6572733F 
 335      00
 336 0061 000000   		.align	2
 337              	.LC7:
 338 0064 3120506C 		.ascii	"1 Player Mode\000"
 338      61796572 
 338      204D6F64 
 338      6500
 339 0072 0000     		.align	2
 340              	.LC8:
 341 0074 3220506C 		.ascii	"2 Player Mode\000"
 341      61796572 
 341      204D6F64 
 341      6500
 342              		.section	.text.main,"ax",%progbits
 343              		.align	1
 344              		.global	main
 345              		.syntax unified
 346              		.thumb
 347              		.thumb_func
 349              	main:
 350              	.LFB1108:
 107:Core/Src/main.c **** 
 351              		.loc 1 107 1 view -0
 352              		.cfi_startproc
 353              		@ args = 0, pretend = 0, frame = 352
 354              		@ frame_needed = 0, uses_anonymous_args = 0
 355 0000 2DE9F041 		push	{r4, r5, r6, r7, r8, lr}
 356              		.cfi_def_cfa_offset 24
 357              		.cfi_offset 4, -24
 358              		.cfi_offset 5, -20
 359              		.cfi_offset 6, -16
 360              		.cfi_offset 7, -12
 361              		.cfi_offset 8, -8
 362              		.cfi_offset 14, -4
ARM GAS  C:\Users\elhyd\AppData\Local\Temp\ccLVS8OV.s 			page 19


 363 0004 DAB0     		sub	sp, sp, #360
 364              		.cfi_def_cfa_offset 384
 116:Core/Src/main.c **** 
 365              		.loc 1 116 3 view .LVU81
 366 0006 FFF7FEFF 		bl	HAL_Init
 367              	.LVL16:
 123:Core/Src/main.c **** 
 368              		.loc 1 123 3 view .LVU82
 369 000a FFF7FEFF 		bl	SystemClock_Config
 370              	.LVL17:
 126:Core/Src/main.c **** 
 371              		.loc 1 126 3 view .LVU83
 372 000e FFF7FEFF 		bl	PeriphCommonClock_Config
 373              	.LVL18:
 133:Core/Src/main.c ****   MX_ADC1_Init();
 374              		.loc 1 133 3 view .LVU84
 375 0012 FFF7FEFF 		bl	MX_GPIO_Init
 376              	.LVL19:
 134:Core/Src/main.c ****   MX_USART1_UART_Init();
 377              		.loc 1 134 3 view .LVU85
 378 0016 FFF7FEFF 		bl	MX_ADC1_Init
 379              	.LVL20:
 135:Core/Src/main.c ****   MX_TIM2_Init();
 380              		.loc 1 135 3 view .LVU86
 381 001a FFF7FEFF 		bl	MX_USART1_UART_Init
 382              	.LVL21:
 136:Core/Src/main.c ****   /* USER CODE BEGIN 2 */
 383              		.loc 1 136 3 view .LVU87
 384 001e FFF7FEFF 		bl	MX_TIM2_Init
 385              	.LVL22:
 138:Core/Src/main.c ****   /*** Initialize LCD ***/
 386              		.loc 1 138 3 view .LVU88
 387 0022 8448     		ldr	r0, .L42
 388 0024 FFF7FEFF 		bl	HAL_TIM_Base_Start
 389              	.LVL23:
 140:Core/Src/main.c ****   LCD_Cls();
 390              		.loc 1 140 3 view .LVU89
 391 0028 FFF7FEFF 		bl	LCD_Init
 392              	.LVL24:
 141:Core/Src/main.c ****   /*** End of LCD Initialization ***/
 393              		.loc 1 141 3 view .LVU90
 394 002c FFF7FEFF 		bl	LCD_Cls
 395              	.LVL25:
 145:Core/Src/main.c ****                  GPIOC, GPIO_PIN_6);
 396              		.loc 1 145 3 view .LVU91
 397 0030 814C     		ldr	r4, .L42+4
 398 0032 4023     		movs	r3, #64
 399 0034 0193     		str	r3, [sp, #4]
 400 0036 814B     		ldr	r3, .L42+8
 401 0038 0093     		str	r3, [sp]
 402 003a 814B     		ldr	r3, .L42+12
 403 003c 814A     		ldr	r2, .L42+16
 404 003e 8249     		ldr	r1, .L42+20
 405 0040 2046     		mov	r0, r4
 406 0042 FFF7FEFF 		bl	Joystick_Init
 407              	.LVL26:
 147:Core/Src/main.c ****   /*** End of Joystick Initialization ***/
ARM GAS  C:\Users\elhyd\AppData\Local\Temp\ccLVS8OV.s 			page 20


 408              		.loc 1 147 3 view .LVU92
 409 0046 2046     		mov	r0, r4
 410 0048 FFF7FEFF 		bl	Joystick_Calibrate
 411              	.LVL27:
 150:Core/Src/main.c ****   GameInfo play;
 412              		.loc 1 150 3 view .LVU93
 151:Core/Src/main.c ****   char lineOne[17] = {0}, lineTwo[17] = {0};
 413              		.loc 1 151 3 view .LVU94
 152:Core/Src/main.c ****   int directionDelay = 0;
 414              		.loc 1 152 3 view .LVU95
 152:Core/Src/main.c ****   int directionDelay = 0;
 415              		.loc 1 152 8 is_stmt 0 view .LVU96
 416 004c 0024     		movs	r4, #0
 417 004e 0894     		str	r4, [sp, #32]
 418 0050 0994     		str	r4, [sp, #36]
 419 0052 0A94     		str	r4, [sp, #40]
 420 0054 0B94     		str	r4, [sp, #44]
 421 0056 8DF83040 		strb	r4, [sp, #48]
 152:Core/Src/main.c ****   int directionDelay = 0;
 422              		.loc 1 152 27 view .LVU97
 423 005a 0394     		str	r4, [sp, #12]
 424 005c 0494     		str	r4, [sp, #16]
 425 005e 0594     		str	r4, [sp, #20]
 426 0060 0694     		str	r4, [sp, #24]
 427 0062 8DF81C40 		strb	r4, [sp, #28]
 153:Core/Src/main.c ****   JoyStickDirection direction = JOY_IDLE, lastDirection = JOY_IDLE;
 428              		.loc 1 153 3 is_stmt 1 view .LVU98
 429              	.LVL28:
 154:Core/Src/main.c ****   /* USER CODE END 2 */
 430              		.loc 1 154 3 view .LVU99
 154:Core/Src/main.c ****   /* USER CODE END 2 */
 431              		.loc 1 154 43 is_stmt 0 view .LVU100
 432 0066 2646     		mov	r6, r4
 153:Core/Src/main.c ****   JoyStickDirection direction = JOY_IDLE, lastDirection = JOY_IDLE;
 433              		.loc 1 153 7 view .LVU101
 434 0068 2546     		mov	r5, r4
 435 006a 30E0     		b	.L17
 436              	.LVL29:
 437              	.L31:
 165:Core/Src/main.c ****     {
 438              		.loc 1 165 5 view .LVU102
 439 006c 0124     		movs	r4, #1
 440              	.LVL30:
 165:Core/Src/main.c ****     {
 441              		.loc 1 165 5 view .LVU103
 442 006e 2EE0     		b	.L17
 443              	.LVL31:
 444              	.L24:
 170:Core/Src/main.c ****         snprintf(lineOne, sizeof(lineOne), "Welcome to the");
 445              		.loc 1 170 9 is_stmt 1 view .LVU104
 446 0070 FFF7FEFF 		bl	LCD_Cls
 447              	.LVL32:
 171:Core/Src/main.c ****         snprintf(lineTwo, sizeof(lineTwo), "Simon Game");
 448              		.loc 1 171 9 view .LVU105
 449 0074 08AF     		add	r7, sp, #32
 450 0076 754B     		ldr	r3, .L42+24
 451 0078 3C46     		mov	r4, r7
ARM GAS  C:\Users\elhyd\AppData\Local\Temp\ccLVS8OV.s 			page 21


 452              	.LVL33:
 171:Core/Src/main.c ****         snprintf(lineTwo, sizeof(lineTwo), "Simon Game");
 453              		.loc 1 171 9 is_stmt 0 view .LVU106
 454 007a 0FCB     		ldm	r3, {r0, r1, r2, r3}
 455 007c 07C4     		stmia	r4!, {r0, r1, r2}
 456 007e 24F8023B 		strh	r3, [r4], #2	@ movhi
 457 0082 1B0C     		lsrs	r3, r3, #16
 458 0084 2370     		strb	r3, [r4]
 172:Core/Src/main.c ****         displayOnLCD(lineOne, lineTwo);
 459              		.loc 1 172 9 is_stmt 1 view .LVU107
 460 0086 0DF10C08 		add	r8, sp, #12
 461 008a 714A     		ldr	r2, .L42+28
 462 008c 4346     		mov	r3, r8
 463 008e 07CA     		ldm	r2, {r0, r1, r2}
 464 0090 03C3     		stmia	r3!, {r0, r1}
 465 0092 23F8022B 		strh	r2, [r3], #2	@ movhi
 466 0096 120C     		lsrs	r2, r2, #16
 467 0098 1A70     		strb	r2, [r3]
 173:Core/Src/main.c ****         HAL_Delay(2000);  
 468              		.loc 1 173 9 view .LVU108
 469 009a 4146     		mov	r1, r8
 470 009c 3846     		mov	r0, r7
 471 009e FFF7FEFF 		bl	displayOnLCD
 472              	.LVL34:
 174:Core/Src/main.c ****         
 473              		.loc 1 174 9 view .LVU109
 474 00a2 4FF4FA60 		mov	r0, #2000
 475 00a6 FFF7FEFF 		bl	HAL_Delay
 476              	.LVL35:
 176:Core/Src/main.c ****         snprintf(lineOne, sizeof(lineOne), "Push To Start!");
 477              		.loc 1 176 9 view .LVU110
 478 00aa FFF7FEFF 		bl	LCD_Cls
 479              	.LVL36:
 177:Core/Src/main.c ****         snprintf(lineTwo, sizeof(lineTwo), "");
 480              		.loc 1 177 9 view .LVU111
 481 00ae 694B     		ldr	r3, .L42+32
 482 00b0 3C46     		mov	r4, r7
 483 00b2 0FCB     		ldm	r3, {r0, r1, r2, r3}
 484 00b4 07C4     		stmia	r4!, {r0, r1, r2}
 485 00b6 24F8023B 		strh	r3, [r4], #2	@ movhi
 486 00ba 1B0C     		lsrs	r3, r3, #16
 487 00bc 2370     		strb	r3, [r4]
 178:Core/Src/main.c ****         displayOnLCD(lineOne, lineTwo);
 488              		.loc 1 178 9 view .LVU112
 489 00be 0023     		movs	r3, #0
 490 00c0 8DF80C30 		strb	r3, [sp, #12]
 179:Core/Src/main.c ****         currentState = START;
 491              		.loc 1 179 9 view .LVU113
 492 00c4 4146     		mov	r1, r8
 493 00c6 3846     		mov	r0, r7
 494 00c8 FFF7FEFF 		bl	displayOnLCD
 495              	.LVL37:
 180:Core/Src/main.c ****         break;
 496              		.loc 1 180 9 view .LVU114
 181:Core/Src/main.c **** 
 497              		.loc 1 181 9 view .LVU115
 180:Core/Src/main.c ****         break;
ARM GAS  C:\Users\elhyd\AppData\Local\Temp\ccLVS8OV.s 			page 22


 498              		.loc 1 180 22 is_stmt 0 view .LVU116
 499 00cc 0124     		movs	r4, #1
 500              	.LVL38:
 501              	.L17:
 159:Core/Src/main.c ****   {
 502              		.loc 1 159 3 is_stmt 1 view .LVU117
 165:Core/Src/main.c ****     {
 503              		.loc 1 165 5 view .LVU118
 504 00ce 052C     		cmp	r4, #5
 505 00d0 CCD8     		bhi	.L31
 506 00d2 01A3     		adr	r3, .L19
 507 00d4 53F824F0 		ldr	pc, [r3, r4, lsl #2]
 508              		.p2align 2
 509              	.L19:
 510 00d8 71000000 		.word	.L24+1
 511 00dc F1000000 		.word	.L23+1
 512 00e0 FF000000 		.word	.L22+1
 513 00e4 2D010000 		.word	.L21+1
 514 00e8 E5010000 		.word	.L20+1
 515 00ec 0D020000 		.word	.L18+1
 516              		.p2align 1
 517              	.L23:
 185:Core/Src/main.c ****         {  currentState = PLAYER_MENU;  }        
 518              		.loc 1 185 9 view .LVU119
 185:Core/Src/main.c ****         {  currentState = PLAYER_MENU;  }        
 519              		.loc 1 185 13 is_stmt 0 view .LVU120
 520 00f0 5148     		ldr	r0, .L42+4
 521 00f2 FFF7FEFF 		bl	Joystick_Pressed
 522              	.LVL39:
 185:Core/Src/main.c ****         {  currentState = PLAYER_MENU;  }        
 523              		.loc 1 185 12 discriminator 1 view .LVU121
 524 00f6 0028     		cmp	r0, #0
 525 00f8 E9D0     		beq	.L17
 186:Core/Src/main.c ****         break;
 526              		.loc 1 186 25 view .LVU122
 527 00fa 0224     		movs	r4, #2
 528              	.LVL40:
 186:Core/Src/main.c ****         break;
 529              		.loc 1 186 25 view .LVU123
 530 00fc E7E7     		b	.L17
 531              	.LVL41:
 532              	.L22:
 191:Core/Src/main.c ****         snprintf(lineOne, sizeof(lineOne), "1 player OR");
 533              		.loc 1 191 9 is_stmt 1 view .LVU124
 534 00fe FFF7FEFF 		bl	LCD_Cls
 535              	.LVL42:
 192:Core/Src/main.c ****         snprintf(lineTwo, sizeof(lineTwo), "2 players?");
 536              		.loc 1 192 9 view .LVU125
 537 0102 08AC     		add	r4, sp, #32
 538              	.LVL43:
 192:Core/Src/main.c ****         snprintf(lineTwo, sizeof(lineTwo), "2 players?");
 539              		.loc 1 192 9 is_stmt 0 view .LVU126
 540 0104 544B     		ldr	r3, .L42+36
 541 0106 93E80700 		ldm	r3, {r0, r1, r2}
 542 010a 84E80700 		stm	r4, {r0, r1, r2}
 193:Core/Src/main.c ****         displayOnLCD(lineOne, lineTwo);
 543              		.loc 1 193 9 is_stmt 1 view .LVU127
ARM GAS  C:\Users\elhyd\AppData\Local\Temp\ccLVS8OV.s 			page 23


 544 010e 03AF     		add	r7, sp, #12
 545 0110 524A     		ldr	r2, .L42+40
 546 0112 3B46     		mov	r3, r7
 547 0114 07CA     		ldm	r2, {r0, r1, r2}
 548 0116 03C3     		stmia	r3!, {r0, r1}
 549 0118 23F8022B 		strh	r2, [r3], #2	@ movhi
 550 011c 120C     		lsrs	r2, r2, #16
 551 011e 1A70     		strb	r2, [r3]
 194:Core/Src/main.c ****         currentState = PLAYER_SELECT;
 552              		.loc 1 194 9 view .LVU128
 553 0120 3946     		mov	r1, r7
 554 0122 2046     		mov	r0, r4
 555 0124 FFF7FEFF 		bl	displayOnLCD
 556              	.LVL44:
 195:Core/Src/main.c ****         break;
 557              		.loc 1 195 9 view .LVU129
 196:Core/Src/main.c **** 
 558              		.loc 1 196 9 view .LVU130
 195:Core/Src/main.c ****         break;
 559              		.loc 1 195 22 is_stmt 0 view .LVU131
 560 0128 0324     		movs	r4, #3
 196:Core/Src/main.c **** 
 561              		.loc 1 196 9 view .LVU132
 562 012a D0E7     		b	.L17
 563              	.LVL45:
 564              	.L21:
 201:Core/Src/main.c **** 
 565              		.loc 1 201 9 is_stmt 1 view .LVU133
 201:Core/Src/main.c **** 
 566              		.loc 1 201 21 is_stmt 0 view .LVU134
 567 012c 4248     		ldr	r0, .L42+4
 568 012e FFF7FEFF 		bl	Joystick_GetDirection
 569              	.LVL46:
 570 0132 0746     		mov	r7, r0
 571              	.LVL47:
 205:Core/Src/main.c ****         {
 572              		.loc 1 205 9 is_stmt 1 view .LVU135
 205:Core/Src/main.c ****         {
 573              		.loc 1 205 11 is_stmt 0 view .LVU136
 574 0134 022D     		cmp	r5, #2
 575 0136 01DC     		bgt	.L27
 205:Core/Src/main.c ****         {
 576              		.loc 1 205 31 discriminator 1 view .LVU137
 577 0138 012E     		cmp	r6, #1
 578 013a 0AD0     		beq	.L38
 579              	.L27:
 580              	.LVL48:
 214:Core/Src/main.c ****         {
 581              		.loc 1 214 9 is_stmt 1 view .LVU138
 214:Core/Src/main.c ****         {
 582              		.loc 1 214 12 is_stmt 0 view .LVU139
 583 013c 002F     		cmp	r7, #0
 584 013e 42D0     		beq	.L34
 585 0140 0025     		movs	r5, #0
 586              	.LVL49:
 587              	.L28:
 214:Core/Src/main.c ****         {
ARM GAS  C:\Users\elhyd\AppData\Local\Temp\ccLVS8OV.s 			page 24


 588              		.loc 1 214 35 discriminator 1 view .LVU140
 589 0142 BE42     		cmp	r6, r7
 590 0144 40D0     		beq	.L29
 217:Core/Src/main.c ****           {
 591              		.loc 1 217 11 is_stmt 1 view .LVU141
 217:Core/Src/main.c ****           {
 592              		.loc 1 217 14 is_stmt 0 view .LVU142
 593 0146 012F     		cmp	r7, #1
 594 0148 09D0     		beq	.L39
 226:Core/Src/main.c ****           {
 595              		.loc 1 226 16 is_stmt 1 view .LVU143
 226:Core/Src/main.c ****           {
 596              		.loc 1 226 19 is_stmt 0 view .LVU144
 597 014a 022F     		cmp	r7, #2
 598 014c 22D0     		beq	.L40
 599 014e 3E46     		mov	r6, r7
 600              	.LVL50:
 226:Core/Src/main.c ****           {
 601              		.loc 1 226 19 view .LVU145
 602 0150 3AE0     		b	.L29
 603              	.LVL51:
 604              	.L38:
 205:Core/Src/main.c ****         {
 605              		.loc 1 205 58 discriminator 2 view .LVU146
 606 0152 10B9     		cbnz	r0, .L33
 207:Core/Src/main.c ****           directionDelay++;
 607              		.loc 1 207 11 is_stmt 1 view .LVU147
 608              	.LVL52:
 208:Core/Src/main.c ****         }
 609              		.loc 1 208 11 view .LVU148
 208:Core/Src/main.c ****         }
 610              		.loc 1 208 25 is_stmt 0 view .LVU149
 611 0154 0135     		adds	r5, r5, #1
 612              	.LVL53:
 214:Core/Src/main.c ****         {
 613              		.loc 1 214 9 is_stmt 1 view .LVU150
 207:Core/Src/main.c ****           directionDelay++;
 614              		.loc 1 207 21 is_stmt 0 view .LVU151
 615 0156 3746     		mov	r7, r6
 616 0158 F3E7     		b	.L28
 617              	.LVL54:
 618              	.L33:
 211:Core/Src/main.c **** 
 619              		.loc 1 211 26 view .LVU152
 620 015a 0025     		movs	r5, #0
 621              	.LVL55:
 211:Core/Src/main.c **** 
 622              		.loc 1 211 26 view .LVU153
 623 015c F1E7     		b	.L28
 624              	.LVL56:
 625              	.L39:
 219:Core/Src/main.c ****             snprintf(lineOne, sizeof(lineOne), "<1> player OR");
 626              		.loc 1 219 13 is_stmt 1 view .LVU154
 627 015e FFF7FEFF 		bl	LCD_Cls
 628              	.LVL57:
 220:Core/Src/main.c ****             snprintf(lineTwo, sizeof(lineTwo), "2 players?");
 629              		.loc 1 220 13 view .LVU155
ARM GAS  C:\Users\elhyd\AppData\Local\Temp\ccLVS8OV.s 			page 25


 630 0162 0DF1200C 		add	ip, sp, #32
 631 0166 3E4B     		ldr	r3, .L42+44
 632 0168 6646     		mov	r6, ip
 633              	.LVL58:
 220:Core/Src/main.c ****             snprintf(lineTwo, sizeof(lineTwo), "2 players?");
 634              		.loc 1 220 13 is_stmt 0 view .LVU156
 635 016a 0FCB     		ldm	r3, {r0, r1, r2, r3}
 636 016c 07C6     		stmia	r6!, {r0, r1, r2}
 637 016e 3380     		strh	r3, [r6]	@ movhi
 221:Core/Src/main.c ****             displayOnLCD(lineOne, lineTwo);
 638              		.loc 1 221 13 is_stmt 1 view .LVU157
 639 0170 03AE     		add	r6, sp, #12
 640 0172 3A4A     		ldr	r2, .L42+40
 641 0174 3346     		mov	r3, r6
 642 0176 07CA     		ldm	r2, {r0, r1, r2}
 643 0178 03C3     		stmia	r3!, {r0, r1}
 644 017a 23F8022B 		strh	r2, [r3], #2	@ movhi
 645 017e 120C     		lsrs	r2, r2, #16
 646 0180 1A70     		strb	r2, [r3]
 222:Core/Src/main.c ****             play.numPlayers = 1;
 647              		.loc 1 222 13 view .LVU158
 648 0182 3146     		mov	r1, r6
 649 0184 6046     		mov	r0, ip
 650 0186 FFF7FEFF 		bl	displayOnLCD
 651              	.LVL59:
 223:Core/Src/main.c ****             direction = JOY_UP;
 652              		.loc 1 223 13 view .LVU159
 223:Core/Src/main.c ****             direction = JOY_UP;
 653              		.loc 1 223 29 is_stmt 0 view .LVU160
 654 018a 0122     		movs	r2, #1
 655 018c 8DF83420 		strb	r2, [sp, #52]
 224:Core/Src/main.c ****           }    
 656              		.loc 1 224 13 is_stmt 1 view .LVU161
 657              	.LVL60:
 224:Core/Src/main.c ****           }    
 658              		.loc 1 224 23 is_stmt 0 view .LVU162
 659 0190 3E46     		mov	r6, r7
 660 0192 19E0     		b	.L29
 661              	.LVL61:
 662              	.L40:
 228:Core/Src/main.c ****             snprintf(lineOne, sizeof(lineOne), "1 player OR");
 663              		.loc 1 228 13 is_stmt 1 view .LVU163
 664 0194 FFF7FEFF 		bl	LCD_Cls
 665              	.LVL62:
 229:Core/Src/main.c ****             snprintf(lineTwo, sizeof(lineTwo), "<2> players?");
 666              		.loc 1 229 13 view .LVU164
 667 0198 0DF1200C 		add	ip, sp, #32
 668 019c 2E4B     		ldr	r3, .L42+36
 669 019e 93E80700 		ldm	r3, {r0, r1, r2}
 670 01a2 8CE80700 		stm	ip, {r0, r1, r2}
 230:Core/Src/main.c ****             displayOnLCD(lineOne, lineTwo);
 671              		.loc 1 230 13 view .LVU165
 672 01a6 0DF10C0E 		add	lr, sp, #12
 673 01aa 2E4B     		ldr	r3, .L42+48
 674 01ac 7646     		mov	r6, lr
 675              	.LVL63:
 230:Core/Src/main.c ****             displayOnLCD(lineOne, lineTwo);
ARM GAS  C:\Users\elhyd\AppData\Local\Temp\ccLVS8OV.s 			page 26


 676              		.loc 1 230 13 is_stmt 0 view .LVU166
 677 01ae 0FCB     		ldm	r3, {r0, r1, r2, r3}
 678 01b0 07C6     		stmia	r6!, {r0, r1, r2}
 679 01b2 3370     		strb	r3, [r6]
 231:Core/Src/main.c ****             play.numPlayers = 2;
 680              		.loc 1 231 13 is_stmt 1 view .LVU167
 681 01b4 7146     		mov	r1, lr
 682 01b6 6046     		mov	r0, ip
 683 01b8 FFF7FEFF 		bl	displayOnLCD
 684              	.LVL64:
 232:Core/Src/main.c ****           }
 685              		.loc 1 232 13 view .LVU168
 232:Core/Src/main.c ****           }
 686              		.loc 1 232 29 is_stmt 0 view .LVU169
 687 01bc 0222     		movs	r2, #2
 688 01be 8DF83420 		strb	r2, [sp, #52]
 689 01c2 3E46     		mov	r6, r7
 690 01c4 00E0     		b	.L29
 691              	.LVL65:
 692              	.L34:
 232:Core/Src/main.c ****           }
 693              		.loc 1 232 29 view .LVU170
 694 01c6 0025     		movs	r5, #0
 695              	.LVL66:
 696              	.L29:
 240:Core/Src/main.c ****         {
 697              		.loc 1 240 9 is_stmt 1 view .LVU171
 240:Core/Src/main.c ****         {
 698              		.loc 1 240 13 is_stmt 0 view .LVU172
 699 01c8 1B48     		ldr	r0, .L42+4
 700 01ca FFF7FEFF 		bl	Joystick_Pressed
 701              	.LVL67:
 240:Core/Src/main.c ****         {
 702              		.loc 1 240 12 discriminator 1 view .LVU173
 703 01ce 0028     		cmp	r0, #0
 704 01d0 3FF47DAF 		beq	.L17
 242:Core/Src/main.c ****             currentState = ONE_PLAYER;
 705              		.loc 1 242 11 is_stmt 1 view .LVU174
 242:Core/Src/main.c ****             currentState = ONE_PLAYER;
 706              		.loc 1 242 19 is_stmt 0 view .LVU175
 707 01d4 9DF83430 		ldrb	r3, [sp, #52]	@ zero_extendqisi2
 242:Core/Src/main.c ****             currentState = ONE_PLAYER;
 708              		.loc 1 242 14 view .LVU176
 709 01d8 012B     		cmp	r3, #1
 710 01da 01D0     		beq	.L41
 245:Core/Src/main.c ****         }
 711              		.loc 1 245 26 view .LVU177
 712 01dc 0524     		movs	r4, #5
 713              	.LVL68:
 245:Core/Src/main.c ****         }
 714              		.loc 1 245 26 view .LVU178
 715 01de 76E7     		b	.L17
 716              	.LVL69:
 717              	.L41:
 243:Core/Src/main.c ****           else 
 718              		.loc 1 243 26 view .LVU179
 719 01e0 0424     		movs	r4, #4
ARM GAS  C:\Users\elhyd\AppData\Local\Temp\ccLVS8OV.s 			page 27


 720              	.LVL70:
 243:Core/Src/main.c ****           else 
 721              		.loc 1 243 26 view .LVU180
 722 01e2 74E7     		b	.L17
 723              	.LVL71:
 724              	.L20:
 254:Core/Src/main.c ****         snprintf(lineOne, sizeof(lineOne), "1 Player Mode");
 725              		.loc 1 254 9 is_stmt 1 view .LVU181
 726 01e4 FFF7FEFF 		bl	LCD_Cls
 727              	.LVL72:
 255:Core/Src/main.c ****         snprintf(lineTwo, sizeof(lineTwo), "");
 728              		.loc 1 255 9 view .LVU182
 729 01e8 08AF     		add	r7, sp, #32
 730 01ea 1F4B     		ldr	r3, .L42+52
 731 01ec 3C46     		mov	r4, r7
 732              	.LVL73:
 255:Core/Src/main.c ****         snprintf(lineTwo, sizeof(lineTwo), "");
 733              		.loc 1 255 9 is_stmt 0 view .LVU183
 734 01ee 0FCB     		ldm	r3, {r0, r1, r2, r3}
 735 01f0 07C4     		stmia	r4!, {r0, r1, r2}
 736 01f2 2380     		strh	r3, [r4]	@ movhi
 256:Core/Src/main.c ****         displayOnLCD(lineOne, lineTwo);
 737              		.loc 1 256 9 is_stmt 1 view .LVU184
 738 01f4 03A9     		add	r1, sp, #12
 739 01f6 0023     		movs	r3, #0
 740 01f8 0B70     		strb	r3, [r1]
 257:Core/Src/main.c ****         HAL_Delay(2000);  //wait 2 seconds
 741              		.loc 1 257 9 view .LVU185
 742 01fa 3846     		mov	r0, r7
 743 01fc FFF7FEFF 		bl	displayOnLCD
 744              	.LVL74:
 258:Core/Src/main.c ****         currentState = PLAYER_MENU;
 745              		.loc 1 258 9 view .LVU186
 746 0200 4FF4FA60 		mov	r0, #2000
 747 0204 FFF7FEFF 		bl	HAL_Delay
 748              	.LVL75:
 259:Core/Src/main.c ****         break;
 749              		.loc 1 259 9 view .LVU187
 260:Core/Src/main.c **** 
 750              		.loc 1 260 9 view .LVU188
 259:Core/Src/main.c ****         break;
 751              		.loc 1 259 22 is_stmt 0 view .LVU189
 752 0208 0224     		movs	r4, #2
 260:Core/Src/main.c **** 
 753              		.loc 1 260 9 view .LVU190
 754 020a 60E7     		b	.L17
 755              	.LVL76:
 756              	.L18:
 263:Core/Src/main.c ****         snprintf(lineOne, sizeof(lineOne), "2 Player Mode");
 757              		.loc 1 263 9 is_stmt 1 view .LVU191
 758 020c FFF7FEFF 		bl	LCD_Cls
 759              	.LVL77:
 264:Core/Src/main.c ****         snprintf(lineTwo, sizeof(lineTwo), "");
 760              		.loc 1 264 9 view .LVU192
 761 0210 08AF     		add	r7, sp, #32
 762 0212 164B     		ldr	r3, .L42+56
 763 0214 3C46     		mov	r4, r7
ARM GAS  C:\Users\elhyd\AppData\Local\Temp\ccLVS8OV.s 			page 28


 764              	.LVL78:
 264:Core/Src/main.c ****         snprintf(lineTwo, sizeof(lineTwo), "");
 765              		.loc 1 264 9 is_stmt 0 view .LVU193
 766 0216 0FCB     		ldm	r3, {r0, r1, r2, r3}
 767 0218 07C4     		stmia	r4!, {r0, r1, r2}
 768 021a 2380     		strh	r3, [r4]	@ movhi
 265:Core/Src/main.c ****         displayOnLCD(lineOne, lineTwo);
 769              		.loc 1 265 9 is_stmt 1 view .LVU194
 770 021c 03A9     		add	r1, sp, #12
 771 021e 0023     		movs	r3, #0
 772 0220 0B70     		strb	r3, [r1]
 266:Core/Src/main.c ****         HAL_Delay(2000);  //wait 2 seconds
 773              		.loc 1 266 9 view .LVU195
 774 0222 3846     		mov	r0, r7
 775 0224 FFF7FEFF 		bl	displayOnLCD
 776              	.LVL79:
 267:Core/Src/main.c ****         currentState = PLAYER_MENU;
 777              		.loc 1 267 9 view .LVU196
 778 0228 4FF4FA60 		mov	r0, #2000
 779 022c FFF7FEFF 		bl	HAL_Delay
 780              	.LVL80:
 268:Core/Src/main.c ****         break;
 781              		.loc 1 268 9 view .LVU197
 269:Core/Src/main.c ****       // case SCORES:
 782              		.loc 1 269 9 view .LVU198
 268:Core/Src/main.c ****         break;
 783              		.loc 1 268 22 is_stmt 0 view .LVU199
 784 0230 0224     		movs	r4, #2
 785              	.LVL81:
 269:Core/Src/main.c ****       // case SCORES:
 786              		.loc 1 269 9 view .LVU200
 787 0232 4CE7     		b	.L17
 788              	.L43:
 789              		.align	2
 790              	.L42:
 791 0234 00000000 		.word	htim2
 792 0238 00000000 		.word	joystick
 793 023c 00080048 		.word	1207961600
 794 0240 00018021 		.word	562036992
 795 0244 8000501D 		.word	491782272
 796 0248 00000000 		.word	hadc1
 797 024c 00000000 		.word	.LC0
 798 0250 10000000 		.word	.LC1
 799 0254 1C000000 		.word	.LC2
 800 0258 2C000000 		.word	.LC3
 801 025c 38000000 		.word	.LC4
 802 0260 44000000 		.word	.LC5
 803 0264 54000000 		.word	.LC6
 804 0268 64000000 		.word	.LC7
 805 026c 74000000 		.word	.LC8
 806              		.cfi_endproc
 807              	.LFE1108:
 809              		.global	joystick
 810              		.section	.bss.joystick,"aw",%nobits
 811              		.align	2
 814              	joystick:
 815 0000 00000000 		.space	20
ARM GAS  C:\Users\elhyd\AppData\Local\Temp\ccLVS8OV.s 			page 29


 815      00000000 
 815      00000000 
 815      00000000 
 815      00000000 
 816              		.text
 817              	.Letext0:
 818              		.file 3 "C:/Users/elhyd/AppData/Roaming/Code/User/globalStorage/bmd.stm32-for-vscode/@xpack-dev-to
 819              		.file 4 "C:/Users/elhyd/AppData/Roaming/Code/User/globalStorage/bmd.stm32-for-vscode/@xpack-dev-to
 820              		.file 5 "Drivers/CMSIS/Device/ST/STM32WBxx/Include/stm32wb55xx.h"
 821              		.file 6 "Drivers/CMSIS/Device/ST/STM32WBxx/Include/stm32wbxx.h"
 822              		.file 7 "Drivers/STM32WBxx_HAL_Driver/Inc/stm32wbxx_hal_def.h"
 823              		.file 8 "Drivers/STM32WBxx_HAL_Driver/Inc/stm32wbxx_hal_dma.h"
 824              		.file 9 "Drivers/STM32WBxx_HAL_Driver/Inc/stm32wbxx_hal_adc.h"
 825              		.file 10 "Drivers/STM32WBxx_HAL_Driver/Inc/stm32wbxx_hal_rcc.h"
 826              		.file 11 "Drivers/STM32WBxx_HAL_Driver/Inc/stm32wbxx_hal_rcc_ex.h"
 827              		.file 12 "Drivers/STM32WBxx_HAL_Driver/Inc/stm32wbxx_hal_tim.h"
 828              		.file 13 "Core/Inc/adc.h"
 829              		.file 14 "Core/Inc/tim.h"
 830              		.file 15 "Core/Inc/joystick.h"
 831              		.file 16 "C:/Users/elhyd/AppData/Roaming/Code/User/globalStorage/bmd.stm32-for-vscode/@xpack-dev-t
 832              		.file 17 "Core/Inc/lcd1602.h"
 833              		.file 18 "Core/Inc/usart.h"
 834              		.file 19 "Core/Inc/gpio.h"
 835              		.file 20 "Drivers/STM32WBxx_HAL_Driver/Inc/stm32wbxx_hal.h"
 836              		.file 21 "<built-in>"
ARM GAS  C:\Users\elhyd\AppData\Local\Temp\ccLVS8OV.s 			page 30


DEFINED SYMBOLS
                            *ABS*:00000000 main.c
C:\Users\elhyd\AppData\Local\Temp\ccLVS8OV.s:21     .text.displayOnLCD:00000000 $t
C:\Users\elhyd\AppData\Local\Temp\ccLVS8OV.s:27     .text.displayOnLCD:00000000 displayOnLCD
C:\Users\elhyd\AppData\Local\Temp\ccLVS8OV.s:76     .text.Error_Handler:00000000 $t
C:\Users\elhyd\AppData\Local\Temp\ccLVS8OV.s:82     .text.Error_Handler:00000000 Error_Handler
C:\Users\elhyd\AppData\Local\Temp\ccLVS8OV.s:114    .text.SystemClock_Config:00000000 $t
C:\Users\elhyd\AppData\Local\Temp\ccLVS8OV.s:120    .text.SystemClock_Config:00000000 SystemClock_Config
C:\Users\elhyd\AppData\Local\Temp\ccLVS8OV.s:262    .text.PeriphCommonClock_Config:00000000 $t
C:\Users\elhyd\AppData\Local\Temp\ccLVS8OV.s:268    .text.PeriphCommonClock_Config:00000000 PeriphCommonClock_Config
C:\Users\elhyd\AppData\Local\Temp\ccLVS8OV.s:315    .rodata.main.str1.4:00000000 $d
C:\Users\elhyd\AppData\Local\Temp\ccLVS8OV.s:343    .text.main:00000000 $t
C:\Users\elhyd\AppData\Local\Temp\ccLVS8OV.s:349    .text.main:00000000 main
C:\Users\elhyd\AppData\Local\Temp\ccLVS8OV.s:510    .text.main:000000d8 $d
C:\Users\elhyd\AppData\Local\Temp\ccLVS8OV.s:516    .text.main:000000f0 $t
C:\Users\elhyd\AppData\Local\Temp\ccLVS8OV.s:791    .text.main:00000234 $d
C:\Users\elhyd\AppData\Local\Temp\ccLVS8OV.s:814    .bss.joystick:00000000 joystick
C:\Users\elhyd\AppData\Local\Temp\ccLVS8OV.s:811    .bss.joystick:00000000 $d

UNDEFINED SYMBOLS
LCD_GotoXY
LCD_Print
HAL_Delay
memset
HAL_RCC_OscConfig
HAL_RCC_ClockConfig
HAL_RCCEx_PeriphCLKConfig
HAL_Init
MX_GPIO_Init
MX_ADC1_Init
MX_USART1_UART_Init
MX_TIM2_Init
HAL_TIM_Base_Start
LCD_Init
LCD_Cls
Joystick_Init
Joystick_Calibrate
Joystick_Pressed
Joystick_GetDirection
htim2
hadc1
