ARM GAS  C:\Users\elhyd\AppData\Local\Temp\ccbljKy4.s 			page 1


   1              		.cpu cortex-m4
   2              		.arch armv7e-m
   3              		.fpu fpv4-sp-d16
   4              		.eabi_attribute 27, 1
   5              		.eabi_attribute 28, 1
   6              		.eabi_attribute 20, 1
   7              		.eabi_attribute 21, 1
   8              		.eabi_attribute 23, 3
   9              		.eabi_attribute 24, 1
  10              		.eabi_attribute 25, 1
  11              		.eabi_attribute 26, 1
  12              		.eabi_attribute 30, 1
  13              		.eabi_attribute 34, 1
  14              		.eabi_attribute 18, 4
  15              		.file	"SimonGame.c"
  16              		.text
  17              	.Ltext0:
  18              		.cfi_sections	.debug_frame
  19              		.file 1 "Core/Src/SimonGame.c"
  20              		.section	.text.Game_Init,"ax",%progbits
  21              		.align	1
  22              		.global	Game_Init
  23              		.syntax unified
  24              		.thumb
  25              		.thumb_func
  27              	Game_Init:
  28              	.LVL0:
  29              	.LFB1107:
   1:Core/Src/SimonGame.c **** #include "SimonGame.h"
   2:Core/Src/SimonGame.c **** #include "lcd1602.h"
   3:Core/Src/SimonGame.c **** #include "gpio.h"
   4:Core/Src/SimonGame.c **** #include "tim.h"
   5:Core/Src/SimonGame.c **** #include "usart.h"
   6:Core/Src/SimonGame.c **** #include <stdio.h> 
   7:Core/Src/SimonGame.c **** #include <string.h>
   8:Core/Src/SimonGame.c **** #include <stdlib.h>
   9:Core/Src/SimonGame.c **** 
  10:Core/Src/SimonGame.c **** static int buttonTimer = 0;
  11:Core/Src/SimonGame.c **** static Button redButton = {0, 0, LEDR_GPIO_Port, LEDR_Pin}, 
  12:Core/Src/SimonGame.c ****               blueButton = {0, 0, LEDB_GPIO_Port, LEDB_Pin}, 
  13:Core/Src/SimonGame.c ****               yellowButton = {0, 0, LEDY_GPIO_Port, LEDY_Pin}, 
  14:Core/Src/SimonGame.c ****               greenButton = {0, 0, LEDG_GPIO_Port, LEDG_Pin};
  15:Core/Src/SimonGame.c **** static char lineOne[17] = {0}, lineTwo[17] = {0};
  16:Core/Src/SimonGame.c **** 
  17:Core/Src/SimonGame.c **** /**
  18:Core/Src/SimonGame.c ****  * @brief  Initialize the game state and information.
  19:Core/Src/SimonGame.c ****  * @param  game: Pointer to the Game structure to initialize.
  20:Core/Src/SimonGame.c ****  */
  21:Core/Src/SimonGame.c **** void Game_Init(Game* game)
  22:Core/Src/SimonGame.c **** {
  30              		.loc 1 22 1 view -0
  31              		.cfi_startproc
  32              		@ args = 0, pretend = 0, frame = 0
  33              		@ frame_needed = 0, uses_anonymous_args = 0
  34              		.loc 1 22 1 is_stmt 0 view .LVU1
  35 0000 08B5     		push	{r3, lr}
  36              		.cfi_def_cfa_offset 8
ARM GAS  C:\Users\elhyd\AppData\Local\Temp\ccbljKy4.s 			page 2


  37              		.cfi_offset 3, -8
  38              		.cfi_offset 14, -4
  23:Core/Src/SimonGame.c ****     game->state = WELCOME;
  39              		.loc 1 23 5 is_stmt 1 view .LVU2
  40              		.loc 1 23 17 is_stmt 0 view .LVU3
  41 0002 0021     		movs	r1, #0
  42 0004 00F8041B 		strb	r1, [r0], #4
  43              	.LVL1:
  24:Core/Src/SimonGame.c ****     memset(&game->info, 0, sizeof(GameInfo));
  44              		.loc 1 24 5 is_stmt 1 view .LVU4
  45 0008 4FF49C72 		mov	r2, #312
  46 000c FFF7FEFF 		bl	memset
  47              	.LVL2:
  25:Core/Src/SimonGame.c **** }
  48              		.loc 1 25 1 is_stmt 0 view .LVU5
  49 0010 08BD     		pop	{r3, pc}
  50              		.cfi_endproc
  51              	.LFE1107:
  53              		.section	.text.displayOnLCD,"ax",%progbits
  54              		.align	1
  55              		.global	displayOnLCD
  56              		.syntax unified
  57              		.thumb
  58              		.thumb_func
  60              	displayOnLCD:
  61              	.LVL3:
  62              	.LFB1108:
  26:Core/Src/SimonGame.c **** 
  27:Core/Src/SimonGame.c **** /**
  28:Core/Src/SimonGame.c ****  * @brief  Display two lines of text on the LCD.
  29:Core/Src/SimonGame.c ****  * @param  lineOne: Pointer to the first line of text (max 16 characters).
  30:Core/Src/SimonGame.c ****  * @param  lineTwo: Pointer to the second line of text (max 16 characters
  31:Core/Src/SimonGame.c ****  */
  32:Core/Src/SimonGame.c **** void displayOnLCD(char* lineOne, char* lineTwo)
  33:Core/Src/SimonGame.c **** {
  63              		.loc 1 33 1 is_stmt 1 view -0
  64              		.cfi_startproc
  65              		@ args = 0, pretend = 0, frame = 0
  66              		@ frame_needed = 0, uses_anonymous_args = 0
  67              		.loc 1 33 1 is_stmt 0 view .LVU7
  68 0000 38B5     		push	{r3, r4, r5, lr}
  69              		.cfi_def_cfa_offset 16
  70              		.cfi_offset 3, -16
  71              		.cfi_offset 4, -12
  72              		.cfi_offset 5, -8
  73              		.cfi_offset 14, -4
  74 0002 0546     		mov	r5, r0
  75 0004 0C46     		mov	r4, r1
  34:Core/Src/SimonGame.c ****   LCD_GotoXY(0, 0);
  76              		.loc 1 34 3 is_stmt 1 view .LVU8
  77 0006 0021     		movs	r1, #0
  78              	.LVL4:
  79              		.loc 1 34 3 is_stmt 0 view .LVU9
  80 0008 0846     		mov	r0, r1
  81              	.LVL5:
  82              		.loc 1 34 3 view .LVU10
  83 000a FFF7FEFF 		bl	LCD_GotoXY
ARM GAS  C:\Users\elhyd\AppData\Local\Temp\ccbljKy4.s 			page 3


  84              	.LVL6:
  35:Core/Src/SimonGame.c ****   LCD_Print(lineOne);
  85              		.loc 1 35 3 is_stmt 1 view .LVU11
  86 000e 2846     		mov	r0, r5
  87 0010 FFF7FEFF 		bl	LCD_Print
  88              	.LVL7:
  36:Core/Src/SimonGame.c ****   LCD_GotoXY(0, 1);
  89              		.loc 1 36 3 view .LVU12
  90 0014 0121     		movs	r1, #1
  91 0016 0020     		movs	r0, #0
  92 0018 FFF7FEFF 		bl	LCD_GotoXY
  93              	.LVL8:
  37:Core/Src/SimonGame.c ****   LCD_Print(lineTwo);
  94              		.loc 1 37 3 view .LVU13
  95 001c 2046     		mov	r0, r4
  96 001e FFF7FEFF 		bl	LCD_Print
  97              	.LVL9:
  38:Core/Src/SimonGame.c ****   HAL_Delay(1000);
  98              		.loc 1 38 3 view .LVU14
  99 0022 4FF47A70 		mov	r0, #1000
 100 0026 FFF7FEFF 		bl	HAL_Delay
 101              	.LVL10:
  39:Core/Src/SimonGame.c **** }
 102              		.loc 1 39 1 is_stmt 0 view .LVU15
 103 002a 38BD     		pop	{r3, r4, r5, pc}
 104              		.loc 1 39 1 view .LVU16
 105              		.cfi_endproc
 106              	.LFE1108:
 108              		.section	.text.compareSequences,"ax",%progbits
 109              		.align	1
 110              		.global	compareSequences
 111              		.syntax unified
 112              		.thumb
 113              		.thumb_func
 115              	compareSequences:
 116              	.LVL11:
 117              	.LFB1109:
  40:Core/Src/SimonGame.c **** 
  41:Core/Src/SimonGame.c **** /**
  42:Core/Src/SimonGame.c ****  * @brief  Compare the player's input sequence with the computer's sequence.
  43:Core/Src/SimonGame.c ****  *         Increment player's score by 1 point for each correct color input.
  44:Core/Src/SimonGame.c ****  * @param  game: Pointer to the Game structure.
  45:Core/Src/SimonGame.c ****  */
  46:Core/Src/SimonGame.c **** void compareSequences(Game* game)
  47:Core/Src/SimonGame.c **** {
 118              		.loc 1 47 1 is_stmt 1 view -0
 119              		.cfi_startproc
 120              		@ args = 0, pretend = 0, frame = 0
 121              		@ frame_needed = 0, uses_anonymous_args = 0
 122              		@ link register save eliminated.
  48:Core/Src/SimonGame.c ****   if (game->info.numPlayers == 1)
 123              		.loc 1 48 3 view .LVU18
 124              		.loc 1 48 17 is_stmt 0 view .LVU19
 125 0000 0379     		ldrb	r3, [r0, #4]	@ zero_extendqisi2
 126              		.loc 1 48 6 view .LVU20
 127 0002 012B     		cmp	r3, #1
 128 0004 04D0     		beq	.L15
ARM GAS  C:\Users\elhyd\AppData\Local\Temp\ccbljKy4.s 			page 4


 129              	.LBB2:
  49:Core/Src/SimonGame.c ****   {
  50:Core/Src/SimonGame.c ****     for(int i = 0; i < game->info.sequenceLength; i++)
  51:Core/Src/SimonGame.c ****     {
  52:Core/Src/SimonGame.c ****       if(game->info.sequence[i] != game->info.playerInputs[0][i])
  53:Core/Src/SimonGame.c ****       {
  54:Core/Src/SimonGame.c ****         game->state = GAME_RESULT;
  55:Core/Src/SimonGame.c ****         return;
  56:Core/Src/SimonGame.c ****       }
  57:Core/Src/SimonGame.c ****       else
  58:Core/Src/SimonGame.c ****       { game->info.playerScores[0]++; }
  59:Core/Src/SimonGame.c ****     }
  60:Core/Src/SimonGame.c ****   }
  61:Core/Src/SimonGame.c ****   else
  62:Core/Src/SimonGame.c ****   {
  63:Core/Src/SimonGame.c ****     for(int i = 0; i < game->info.sequenceLength - 1; i++)
 130              		.loc 1 63 13 view .LVU21
 131 0006 0022     		movs	r2, #0
 132 0008 1EE0     		b	.L7
 133              	.LVL12:
 134              	.L17:
 135              		.loc 1 63 13 view .LVU22
 136              	.LBE2:
 137              	.LBB3:
  54:Core/Src/SimonGame.c ****         return;
 138              		.loc 1 54 9 is_stmt 1 view .LVU23
  54:Core/Src/SimonGame.c ****         return;
 139              		.loc 1 54 21 is_stmt 0 view .LVU24
 140 000a 0623     		movs	r3, #6
 141              	.LVL13:
  54:Core/Src/SimonGame.c ****         return;
 142              		.loc 1 54 21 view .LVU25
 143 000c 0370     		strb	r3, [r0]
  55:Core/Src/SimonGame.c ****       }
 144              		.loc 1 55 9 is_stmt 1 view .LVU26
 145 000e 7047     		bx	lr
 146              	.LVL14:
 147              	.L15:
  50:Core/Src/SimonGame.c ****     {
 148              		.loc 1 50 13 is_stmt 0 view .LVU27
 149 0010 0023     		movs	r3, #0
 150              	.L6:
 151              	.LVL15:
  50:Core/Src/SimonGame.c ****     {
 152              		.loc 1 50 22 is_stmt 1 discriminator 1 view .LVU28
  50:Core/Src/SimonGame.c ****     {
 153              		.loc 1 50 34 is_stmt 0 discriminator 1 view .LVU29
 154 0012 90F87020 		ldrb	r2, [r0, #112]	@ zero_extendqisi2
  50:Core/Src/SimonGame.c ****     {
 155              		.loc 1 50 22 discriminator 1 view .LVU30
 156 0016 9A42     		cmp	r2, r3
 157 0018 0CDD     		ble	.L16
  52:Core/Src/SimonGame.c ****       {
 158              		.loc 1 52 7 is_stmt 1 view .LVU31
  52:Core/Src/SimonGame.c ****       {
 159              		.loc 1 52 29 is_stmt 0 view .LVU32
 160 001a C218     		adds	r2, r0, r3
ARM GAS  C:\Users\elhyd\AppData\Local\Temp\ccbljKy4.s 			page 5


 161 001c 117B     		ldrb	r1, [r2, #12]	@ zero_extendqisi2
  52:Core/Src/SimonGame.c ****       {
 162              		.loc 1 52 62 view .LVU33
 163 001e 92F87220 		ldrb	r2, [r2, #114]	@ zero_extendqisi2
  52:Core/Src/SimonGame.c ****       {
 164              		.loc 1 52 9 view .LVU34
 165 0022 9142     		cmp	r1, r2
 166 0024 F1D1     		bne	.L17
  58:Core/Src/SimonGame.c ****     }
 167              		.loc 1 58 9 is_stmt 1 view .LVU35
  58:Core/Src/SimonGame.c ****     }
 168              		.loc 1 58 32 is_stmt 0 view .LVU36
 169 0026 90F83A21 		ldrb	r2, [r0, #314]	@ zero_extendqisi2
  58:Core/Src/SimonGame.c ****     }
 170              		.loc 1 58 35 view .LVU37
 171 002a 0132     		adds	r2, r2, #1
 172 002c 80F83A21 		strb	r2, [r0, #314]
  50:Core/Src/SimonGame.c ****     {
 173              		.loc 1 50 52 is_stmt 1 discriminator 2 view .LVU38
 174 0030 0133     		adds	r3, r3, #1
 175              	.LVL16:
  50:Core/Src/SimonGame.c ****     {
 176              		.loc 1 50 52 is_stmt 0 discriminator 2 view .LVU39
 177 0032 EEE7     		b	.L6
 178              	.L16:
  50:Core/Src/SimonGame.c ****     {
 179              		.loc 1 50 52 discriminator 2 view .LVU40
 180 0034 7047     		bx	lr
 181              	.LVL17:
 182              	.L19:
  50:Core/Src/SimonGame.c ****     {
 183              		.loc 1 50 52 discriminator 2 view .LVU41
 184              	.LBE3:
 185              	.LBB4:
  64:Core/Src/SimonGame.c ****     {
  65:Core/Src/SimonGame.c ****       if(game->info.playerInputs[0][i] != game->info.playerInputs[1][i])
  66:Core/Src/SimonGame.c ****       {
  67:Core/Src/SimonGame.c ****         game->state = GAME_RESULT;
 186              		.loc 1 67 9 is_stmt 1 view .LVU42
 187              		.loc 1 67 21 is_stmt 0 view .LVU43
 188 0036 0623     		movs	r3, #6
 189 0038 0370     		strb	r3, [r0]
  68:Core/Src/SimonGame.c ****         return;
 190              		.loc 1 68 9 is_stmt 1 view .LVU44
 191 003a 7047     		bx	lr
 192              	.L20:
  69:Core/Src/SimonGame.c ****       }
  70:Core/Src/SimonGame.c ****       else
  71:Core/Src/SimonGame.c ****       {
  72:Core/Src/SimonGame.c ****         if(game->info.currentPlayer == 1)
  73:Core/Src/SimonGame.c ****         { game->info.playerScores[0]++; }
 193              		.loc 1 73 11 view .LVU45
 194              		.loc 1 73 34 is_stmt 0 view .LVU46
 195 003c 90F83A31 		ldrb	r3, [r0, #314]	@ zero_extendqisi2
 196              		.loc 1 73 37 view .LVU47
 197 0040 0133     		adds	r3, r3, #1
 198 0042 80F83A31 		strb	r3, [r0, #314]
ARM GAS  C:\Users\elhyd\AppData\Local\Temp\ccbljKy4.s 			page 6


 199              	.L13:
  63:Core/Src/SimonGame.c ****     {
 200              		.loc 1 63 56 is_stmt 1 discriminator 2 view .LVU48
 201 0046 0132     		adds	r2, r2, #1
 202              	.LVL18:
 203              	.L7:
  63:Core/Src/SimonGame.c ****     {
 204              		.loc 1 63 22 discriminator 1 view .LVU49
  63:Core/Src/SimonGame.c ****     {
 205              		.loc 1 63 34 is_stmt 0 discriminator 1 view .LVU50
 206 0048 90F87030 		ldrb	r3, [r0, #112]	@ zero_extendqisi2
  63:Core/Src/SimonGame.c ****     {
 207              		.loc 1 63 50 discriminator 1 view .LVU51
 208 004c 013B     		subs	r3, r3, #1
  63:Core/Src/SimonGame.c ****     {
 209              		.loc 1 63 22 discriminator 1 view .LVU52
 210 004e 9342     		cmp	r3, r2
 211 0050 0FDD     		ble	.L18
  65:Core/Src/SimonGame.c ****       {
 212              		.loc 1 65 7 is_stmt 1 view .LVU53
  65:Core/Src/SimonGame.c ****       {
 213              		.loc 1 65 36 is_stmt 0 view .LVU54
 214 0052 8318     		adds	r3, r0, r2
 215 0054 93F87210 		ldrb	r1, [r3, #114]	@ zero_extendqisi2
  65:Core/Src/SimonGame.c ****       {
 216              		.loc 1 65 69 view .LVU55
 217 0058 93F8D630 		ldrb	r3, [r3, #214]	@ zero_extendqisi2
  65:Core/Src/SimonGame.c ****       {
 218              		.loc 1 65 9 view .LVU56
 219 005c 9942     		cmp	r1, r3
 220 005e EAD1     		bne	.L19
  72:Core/Src/SimonGame.c ****         { game->info.playerScores[0]++; }
 221              		.loc 1 72 9 is_stmt 1 view .LVU57
  72:Core/Src/SimonGame.c ****         { game->info.playerScores[0]++; }
 222              		.loc 1 72 22 is_stmt 0 view .LVU58
 223 0060 4379     		ldrb	r3, [r0, #5]	@ zero_extendqisi2
  72:Core/Src/SimonGame.c ****         { game->info.playerScores[0]++; }
 224              		.loc 1 72 11 view .LVU59
 225 0062 012B     		cmp	r3, #1
 226 0064 EAD0     		beq	.L20
  74:Core/Src/SimonGame.c ****         else
  75:Core/Src/SimonGame.c ****         { game->info.playerScores[1]++; }
 227              		.loc 1 75 11 is_stmt 1 view .LVU60
 228              		.loc 1 75 34 is_stmt 0 view .LVU61
 229 0066 90F83B31 		ldrb	r3, [r0, #315]	@ zero_extendqisi2
 230              		.loc 1 75 37 view .LVU62
 231 006a 0133     		adds	r3, r3, #1
 232 006c 80F83B31 		strb	r3, [r0, #315]
 233 0070 E9E7     		b	.L13
 234              	.L18:
 235              	.LBE4:
  76:Core/Src/SimonGame.c ****       }
  77:Core/Src/SimonGame.c ****     }
  78:Core/Src/SimonGame.c ****   }
  79:Core/Src/SimonGame.c **** }
 236              		.loc 1 79 1 view .LVU63
 237 0072 7047     		bx	lr
ARM GAS  C:\Users\elhyd\AppData\Local\Temp\ccbljKy4.s 			page 7


 238              		.cfi_endproc
 239              	.LFE1109:
 241              		.section	.text.computerTurn,"ax",%progbits
 242              		.align	1
 243              		.global	computerTurn
 244              		.syntax unified
 245              		.thumb
 246              		.thumb_func
 248              	computerTurn:
 249              	.LVL19:
 250              	.LFB1111:
  80:Core/Src/SimonGame.c **** 
  81:Core/Src/SimonGame.c **** /**
  82:Core/Src/SimonGame.c ****  * @brief  Run the main game loop, managing game states and transitions.
  83:Core/Src/SimonGame.c ****  * @param  game: Pointer to the Game structure.
  84:Core/Src/SimonGame.c ****  * @param  joystick: Pointer to the Joystick handle structure.
  85:Core/Src/SimonGame.c ****  */
  86:Core/Src/SimonGame.c **** void Game_Run(Game* game, Joystick_HandleTypeDef* joystick)
  87:Core/Src/SimonGame.c **** {
  88:Core/Src/SimonGame.c ****     static int directionDelay = 0;
  89:Core/Src/SimonGame.c ****     static JoyStickDirection direction = JOY_IDLE, lastDirection = JOY_IDLE;
  90:Core/Src/SimonGame.c ****     
  91:Core/Src/SimonGame.c ****     // FSM to manage game states
  92:Core/Src/SimonGame.c ****     switch(game->state)
  93:Core/Src/SimonGame.c ****     {
  94:Core/Src/SimonGame.c ****       // Display WELCOME message and 
  95:Core/Src/SimonGame.c ****       //Push to start prompt after 2 seconds
  96:Core/Src/SimonGame.c ****       case WELCOME:
  97:Core/Src/SimonGame.c ****         LCD_Cls();
  98:Core/Src/SimonGame.c ****         snprintf(lineOne, sizeof(lineOne), "Welcome to the");
  99:Core/Src/SimonGame.c ****         snprintf(lineTwo, sizeof(lineTwo), "Simon Game");
 100:Core/Src/SimonGame.c ****         displayOnLCD(lineOne, lineTwo);
 101:Core/Src/SimonGame.c ****         HAL_Delay(2000);  
 102:Core/Src/SimonGame.c ****         
 103:Core/Src/SimonGame.c ****         LCD_Cls();
 104:Core/Src/SimonGame.c ****         snprintf(lineOne, sizeof(lineOne), "Push To Start!");
 105:Core/Src/SimonGame.c ****         snprintf(lineTwo, sizeof(lineTwo), "");
 106:Core/Src/SimonGame.c ****         displayOnLCD(lineOne, lineTwo);
 107:Core/Src/SimonGame.c ****         game->state = START;
 108:Core/Src/SimonGame.c **** 
 109:Core/Src/SimonGame.c ****         buttonTimer = 0; 
 110:Core/Src/SimonGame.c ****         __HAL_TIM_SET_COUNTER(&htim2, 0);
 111:Core/Src/SimonGame.c ****         break;
 112:Core/Src/SimonGame.c **** 
 113:Core/Src/SimonGame.c ****       // Check if Joystick is pressed to start the game
 114:Core/Src/SimonGame.c ****       //Wait 10 seconds and if no input return to SLEEP state
 115:Core/Src/SimonGame.c ****       case START:
 116:Core/Src/SimonGame.c ****         while (buttonTimer < 100) // 10 seconds timeout
 117:Core/Src/SimonGame.c ****         {
 118:Core/Src/SimonGame.c ****           if (Joystick_Pressed(joystick)) 
 119:Core/Src/SimonGame.c ****           {  
 120:Core/Src/SimonGame.c ****             game->state = PLAYER_MENU;  
 121:Core/Src/SimonGame.c ****             break; 
 122:Core/Src/SimonGame.c ****           }  
 123:Core/Src/SimonGame.c ****         }  
 124:Core/Src/SimonGame.c ****         
 125:Core/Src/SimonGame.c ****         if (game->state != PLAYER_MENU)
ARM GAS  C:\Users\elhyd\AppData\Local\Temp\ccbljKy4.s 			page 8


 126:Core/Src/SimonGame.c ****         { game->state = SLEEP; }
 127:Core/Src/SimonGame.c ****         break;
 128:Core/Src/SimonGame.c **** 
 129:Core/Src/SimonGame.c ****       // Display Player selection menu
 130:Core/Src/SimonGame.c ****       case PLAYER_MENU:
 131:Core/Src/SimonGame.c ****         LCD_Cls();
 132:Core/Src/SimonGame.c ****         snprintf(lineOne, sizeof(lineOne), "1 player OR");
 133:Core/Src/SimonGame.c ****         snprintf(lineTwo, sizeof(lineTwo), "2 players?");
 134:Core/Src/SimonGame.c ****         displayOnLCD(lineOne, lineTwo);
 135:Core/Src/SimonGame.c ****         game->state = PLAYER_SELECT;
 136:Core/Src/SimonGame.c ****         break;
 137:Core/Src/SimonGame.c **** 
 138:Core/Src/SimonGame.c ****       // Handle Player selection based on joystick UP/DOWN input
 139:Core/Src/SimonGame.c ****       case PLAYER_SELECT:
 140:Core/Src/SimonGame.c ****         // Read the joystick input to determine the number of players
 141:Core/Src/SimonGame.c ****         direction = Joystick_GetDirection(joystick);
 142:Core/Src/SimonGame.c **** 
 143:Core/Src/SimonGame.c ****         // Adding "debounce" logic to help resolve jittery input
 144:Core/Src/SimonGame.c ****         //causing direciton UP to be seen once
 145:Core/Src/SimonGame.c ****         if(directionDelay < 3 && lastDirection == JOY_UP && direction == JOY_IDLE)
 146:Core/Src/SimonGame.c ****         {
 147:Core/Src/SimonGame.c ****           direction = JOY_UP;
 148:Core/Src/SimonGame.c ****           directionDelay++;
 149:Core/Src/SimonGame.c ****         }
 150:Core/Src/SimonGame.c ****         else 
 151:Core/Src/SimonGame.c ****         { directionDelay = 0; }
 152:Core/Src/SimonGame.c **** 
 153:Core/Src/SimonGame.c ****         // Update display only if joystick direction has changed
 154:Core/Src/SimonGame.c ****         if (direction != JOY_IDLE && direction != lastDirection)
 155:Core/Src/SimonGame.c ****         {
 156:Core/Src/SimonGame.c ****           
 157:Core/Src/SimonGame.c ****           if (direction == JOY_UP)
 158:Core/Src/SimonGame.c ****           {
 159:Core/Src/SimonGame.c ****             LCD_Cls();
 160:Core/Src/SimonGame.c ****             snprintf(lineOne, sizeof(lineOne), "<1> player OR");
 161:Core/Src/SimonGame.c ****             snprintf(lineTwo, sizeof(lineTwo), "2 players?");
 162:Core/Src/SimonGame.c ****             displayOnLCD(lineOne, lineTwo);
 163:Core/Src/SimonGame.c ****             game->info.numPlayers = 1;
 164:Core/Src/SimonGame.c ****             direction = JOY_UP;
 165:Core/Src/SimonGame.c ****           }    
 166:Core/Src/SimonGame.c ****           else if (direction == JOY_DOWN) 
 167:Core/Src/SimonGame.c ****           {
 168:Core/Src/SimonGame.c ****             LCD_Cls();
 169:Core/Src/SimonGame.c ****             snprintf(lineOne, sizeof(lineOne), "1 player OR");
 170:Core/Src/SimonGame.c ****             snprintf(lineTwo, sizeof(lineTwo), "<2> players?");
 171:Core/Src/SimonGame.c ****             displayOnLCD(lineOne, lineTwo);
 172:Core/Src/SimonGame.c ****             game->info.numPlayers = 2;
 173:Core/Src/SimonGame.c ****           }
 174:Core/Src/SimonGame.c **** 
 175:Core/Src/SimonGame.c ****           lastDirection = direction;  // store last direction
 176:Core/Src/SimonGame.c ****         }   
 177:Core/Src/SimonGame.c **** 
 178:Core/Src/SimonGame.c ****         // Check if joystick is pressed to confirm selection
 179:Core/Src/SimonGame.c ****         // Move to the state which matches the mode selected
 180:Core/Src/SimonGame.c ****         if (Joystick_Pressed(joystick)) 
 181:Core/Src/SimonGame.c ****         {
 182:Core/Src/SimonGame.c ****           if (game->info.numPlayers == 1)
ARM GAS  C:\Users\elhyd\AppData\Local\Temp\ccbljKy4.s 			page 9


 183:Core/Src/SimonGame.c ****           {
 184:Core/Src/SimonGame.c ****             game->state = ONE_PLAYER;
 185:Core/Src/SimonGame.c ****             game->info.currentPlayer = 1;
 186:Core/Src/SimonGame.c **** 
 187:Core/Src/SimonGame.c ****             // Seed the random number generator using joystick readings
 188:Core/Src/SimonGame.c ****             uint16_t seed[2] = {0};
 189:Core/Src/SimonGame.c ****             Joystick_ReadXY(joystick, seed);
 190:Core/Src/SimonGame.c ****             srand(seed[0] ^ seed[1]);
 191:Core/Src/SimonGame.c ****           }
 192:Core/Src/SimonGame.c ****           else 
 193:Core/Src/SimonGame.c ****             game->state = TWO_PLAYERS;
 194:Core/Src/SimonGame.c **** 
 195:Core/Src/SimonGame.c ****           game->info.round = 1;
 196:Core/Src/SimonGame.c ****           game->info.sequenceLength = 1;
 197:Core/Src/SimonGame.c ****           game->info.playerScores[0] = 0;
 198:Core/Src/SimonGame.c ****           game->info.playerScores[1] = 0;
 199:Core/Src/SimonGame.c ****           game->info.sequenceSpeed = 1000; // Initial speed 1 s
 200:Core/Src/SimonGame.c ****         }
 201:Core/Src/SimonGame.c ****         break;
 202:Core/Src/SimonGame.c ****       
 203:Core/Src/SimonGame.c ****         // For LCD+Joystick testing purposes only,
 204:Core/Src/SimonGame.c ****         // Display the mode type selected, wait 2 seconds then
 205:Core/Src/SimonGame.c ****         // return to the PLAYER SELECT state for further 
 206:Core/Src/SimonGame.c ****         // joystick to LCD interaction testing
 207:Core/Src/SimonGame.c ****       case ONE_PLAYER:
 208:Core/Src/SimonGame.c ****         LCD_Cls();
 209:Core/Src/SimonGame.c ****         snprintf(lineOne, sizeof(lineOne), "Round %d", game->info.round);
 210:Core/Src/SimonGame.c ****         snprintf(lineTwo, sizeof(lineTwo), "Simon's Turn!");
 211:Core/Src/SimonGame.c ****         displayOnLCD(lineOne, lineTwo);
 212:Core/Src/SimonGame.c ****         HAL_Delay(500);  //wait 1/2 second
 213:Core/Src/SimonGame.c ****         computerTurn(game);
 214:Core/Src/SimonGame.c **** 
 215:Core/Src/SimonGame.c ****         LCD_Cls();
 216:Core/Src/SimonGame.c ****         snprintf(lineOne, sizeof(lineOne), "Player's Turn!");
 217:Core/Src/SimonGame.c ****         snprintf(lineTwo, sizeof(lineTwo), "Score: %d", game->info.playerScores[0]);
 218:Core/Src/SimonGame.c ****         displayOnLCD(lineOne, lineTwo);
 219:Core/Src/SimonGame.c ****         HAL_Delay(500);  //wait 1/2 second
 220:Core/Src/SimonGame.c ****         playerTurn(game);
 221:Core/Src/SimonGame.c **** 
 222:Core/Src/SimonGame.c ****         if(game->state != GAME_RESULT)
 223:Core/Src/SimonGame.c ****         {
 224:Core/Src/SimonGame.c ****           compareSequences(game);
 225:Core/Src/SimonGame.c ****           if(game->state != GAME_RESULT)
 226:Core/Src/SimonGame.c ****           {
 227:Core/Src/SimonGame.c ****             // Prepare for next round
 228:Core/Src/SimonGame.c ****             //Increase round, sequence length and speed
 229:Core/Src/SimonGame.c ****             game->info.round++;
 230:Core/Src/SimonGame.c ****             game->info.sequenceLength++;
 231:Core/Src/SimonGame.c ****           }
 232:Core/Src/SimonGame.c ****         }
 233:Core/Src/SimonGame.c ****         break;
 234:Core/Src/SimonGame.c **** 
 235:Core/Src/SimonGame.c ****       case TWO_PLAYERS:
 236:Core/Src/SimonGame.c ****         LCD_Cls();
 237:Core/Src/SimonGame.c ****         snprintf(lineOne, sizeof(lineOne), "Round %d", game->info.round);
 238:Core/Src/SimonGame.c ****         snprintf(lineTwo, sizeof(lineTwo), "");
 239:Core/Src/SimonGame.c ****         displayOnLCD(lineOne, lineTwo);
ARM GAS  C:\Users\elhyd\AppData\Local\Temp\ccbljKy4.s 			page 10


 240:Core/Src/SimonGame.c ****         HAL_Delay(500);  //wait 1/2 second
 241:Core/Src/SimonGame.c ****         
 242:Core/Src/SimonGame.c ****         snprintf(lineOne, sizeof(lineOne), "Player 1's Turn");
 243:Core/Src/SimonGame.c ****         snprintf(lineTwo, sizeof(lineTwo), "Score: %d", game->info.playerScores[0]);
 244:Core/Src/SimonGame.c ****         displayOnLCD(lineOne, lineTwo);
 245:Core/Src/SimonGame.c ****         HAL_Delay(500);  //wait 1/2 second
 246:Core/Src/SimonGame.c ****         game->info.currentPlayer = 1;
 247:Core/Src/SimonGame.c ****         playerTurn(game);
 248:Core/Src/SimonGame.c **** 
 249:Core/Src/SimonGame.c ****         if (game->state != GAME_RESULT)
 250:Core/Src/SimonGame.c ****         {
 251:Core/Src/SimonGame.c ****           if(game->info.round > 1)
 252:Core/Src/SimonGame.c ****           {
 253:Core/Src/SimonGame.c ****             compareSequences(game);
 254:Core/Src/SimonGame.c ****             if(game->state != GAME_RESULT)
 255:Core/Src/SimonGame.c ****             { game->info.playerScores[0]++; }
 256:Core/Src/SimonGame.c ****           }
 257:Core/Src/SimonGame.c ****                
 258:Core/Src/SimonGame.c ****           // Player 2's turn
 259:Core/Src/SimonGame.c ****           game->info.sequenceLength++;
 260:Core/Src/SimonGame.c ****           LCD_Cls();
 261:Core/Src/SimonGame.c ****           snprintf(lineOne, sizeof(lineOne), "Player 2's Turn");
 262:Core/Src/SimonGame.c ****           snprintf(lineTwo, sizeof(lineTwo), "Score: %d", game->info.playerScores[1]);
 263:Core/Src/SimonGame.c ****           displayOnLCD(lineOne, lineTwo);
 264:Core/Src/SimonGame.c ****           HAL_Delay(500);  //wait 1/2 second
 265:Core/Src/SimonGame.c ****           game->info.currentPlayer = 2;
 266:Core/Src/SimonGame.c ****           playerTurn(game);
 267:Core/Src/SimonGame.c **** 
 268:Core/Src/SimonGame.c ****           if(game->state != GAME_RESULT)
 269:Core/Src/SimonGame.c ****           {
 270:Core/Src/SimonGame.c ****             compareSequences(game);
 271:Core/Src/SimonGame.c ****             if(game->state != GAME_RESULT)
 272:Core/Src/SimonGame.c ****             {
 273:Core/Src/SimonGame.c ****               // Prepare for next round
 274:Core/Src/SimonGame.c ****               game->info.round++;
 275:Core/Src/SimonGame.c ****               game->info.sequenceLength++;
 276:Core/Src/SimonGame.c ****             }
 277:Core/Src/SimonGame.c ****           }
 278:Core/Src/SimonGame.c ****         }
 279:Core/Src/SimonGame.c ****         break;
 280:Core/Src/SimonGame.c **** 
 281:Core/Src/SimonGame.c ****       case GAME_RESULT:
 282:Core/Src/SimonGame.c ****         LCD_Cls();
 283:Core/Src/SimonGame.c ****         if (game->info.numPlayers == 1 )
 284:Core/Src/SimonGame.c ****         {
 285:Core/Src/SimonGame.c ****           snprintf(lineOne, sizeof(lineOne), "Game Over!");
 286:Core/Src/SimonGame.c ****           snprintf(lineTwo, sizeof(lineTwo), "P1 Score: %d", game->info.playerScores[0]);
 287:Core/Src/SimonGame.c ****           displayOnLCD(lineOne, lineTwo);
 288:Core/Src/SimonGame.c ****           HAL_Delay(2000);  //wait 2 seconds
 289:Core/Src/SimonGame.c ****         }
 290:Core/Src/SimonGame.c ****         else
 291:Core/Src/SimonGame.c ****         {
 292:Core/Src/SimonGame.c ****           snprintf(lineOne, sizeof(lineOne), "Game Over!");
 293:Core/Src/SimonGame.c ****           if(game->info.playerScores[0] > game->info.playerScores[1])
 294:Core/Src/SimonGame.c ****           {
 295:Core/Src/SimonGame.c ****             snprintf(lineTwo, sizeof(lineTwo), "Player 1 Wins");
 296:Core/Src/SimonGame.c ****           }
ARM GAS  C:\Users\elhyd\AppData\Local\Temp\ccbljKy4.s 			page 11


 297:Core/Src/SimonGame.c ****           else if(game->info.playerScores[0] < game->info.playerScores[1])
 298:Core/Src/SimonGame.c ****           {
 299:Core/Src/SimonGame.c ****             snprintf(lineTwo, sizeof(lineTwo), "Player 2 Wins");
 300:Core/Src/SimonGame.c ****           }
 301:Core/Src/SimonGame.c ****           else
 302:Core/Src/SimonGame.c ****           {
 303:Core/Src/SimonGame.c ****             snprintf(lineTwo, sizeof(lineTwo), "Players Tied");
 304:Core/Src/SimonGame.c ****           }
 305:Core/Src/SimonGame.c ****           displayOnLCD(lineOne, lineTwo);
 306:Core/Src/SimonGame.c ****           HAL_Delay(2000);  //wait 1 second
 307:Core/Src/SimonGame.c **** 
 308:Core/Src/SimonGame.c ****           snprintf(lineOne, sizeof(lineOne), "P1 Score: %d", game->info.playerScores[0]);
 309:Core/Src/SimonGame.c ****           snprintf(lineTwo, sizeof(lineTwo), "P2 Score: %d", game->info.playerScores[1]);
 310:Core/Src/SimonGame.c ****           displayOnLCD(lineOne, lineTwo);
 311:Core/Src/SimonGame.c ****           HAL_Delay(2000);  //wait 2 seconds
 312:Core/Src/SimonGame.c ****         }
 313:Core/Src/SimonGame.c ****         game->state = PLAY_AGAIN;
 314:Core/Src/SimonGame.c ****         break;
 315:Core/Src/SimonGame.c ****       
 316:Core/Src/SimonGame.c ****       case PLAY_AGAIN:
 317:Core/Src/SimonGame.c ****         LCD_Cls();
 318:Core/Src/SimonGame.c ****         snprintf(lineOne, sizeof(lineOne), "Play Again?");
 319:Core/Src/SimonGame.c ****         snprintf(lineTwo, sizeof(lineTwo), "Push to Start");
 320:Core/Src/SimonGame.c ****         displayOnLCD(lineOne, lineTwo);
 321:Core/Src/SimonGame.c ****         game->state = START;
 322:Core/Src/SimonGame.c **** 
 323:Core/Src/SimonGame.c ****         buttonTimer = 0; 
 324:Core/Src/SimonGame.c ****         __HAL_TIM_SET_COUNTER(&htim2, 0);
 325:Core/Src/SimonGame.c ****         break;
 326:Core/Src/SimonGame.c **** 
 327:Core/Src/SimonGame.c ****       case SLEEP:
 328:Core/Src/SimonGame.c ****         LCD_Cls();
 329:Core/Src/SimonGame.c ****         snprintf(lineOne, sizeof(lineOne), "");
 330:Core/Src/SimonGame.c ****         snprintf(lineTwo, sizeof(lineTwo), "");
 331:Core/Src/SimonGame.c ****         displayOnLCD(lineOne, lineTwo);
 332:Core/Src/SimonGame.c ****         game->state = WAKE_UP;
 333:Core/Src/SimonGame.c ****         break;
 334:Core/Src/SimonGame.c **** 
 335:Core/Src/SimonGame.c ****       case WAKE_UP:
 336:Core/Src/SimonGame.c ****         // Wait for joystick press to wake up
 337:Core/Src/SimonGame.c ****         if (Joystick_Pressed(joystick)) 
 338:Core/Src/SimonGame.c ****         { game->state = WELCOME;  } 
 339:Core/Src/SimonGame.c ****         break;
 340:Core/Src/SimonGame.c **** 
 341:Core/Src/SimonGame.c ****       default:
 342:Core/Src/SimonGame.c ****         game->state = SLEEP;
 343:Core/Src/SimonGame.c ****         break;
 344:Core/Src/SimonGame.c ****     }
 345:Core/Src/SimonGame.c **** }
 346:Core/Src/SimonGame.c **** 
 347:Core/Src/SimonGame.c **** 
 348:Core/Src/SimonGame.c **** /**
 349:Core/Src/SimonGame.c ****  * @brief  Handle the computer's turn in the game.
 350:Core/Src/SimonGame.c ****  * @param  game: Pointer to the Game structure.
 351:Core/Src/SimonGame.c ****  */
 352:Core/Src/SimonGame.c **** void computerTurn(Game* game)
 353:Core/Src/SimonGame.c **** {
ARM GAS  C:\Users\elhyd\AppData\Local\Temp\ccbljKy4.s 			page 12


 251              		.loc 1 353 1 is_stmt 1 view -0
 252              		.cfi_startproc
 253              		@ args = 0, pretend = 0, frame = 0
 254              		@ frame_needed = 0, uses_anonymous_args = 0
 255              		.loc 1 353 1 is_stmt 0 view .LVU65
 256 0000 70B5     		push	{r4, r5, r6, lr}
 257              		.cfi_def_cfa_offset 16
 258              		.cfi_offset 4, -16
 259              		.cfi_offset 5, -12
 260              		.cfi_offset 6, -8
 261              		.cfi_offset 14, -4
 262 0002 0446     		mov	r4, r0
 354:Core/Src/SimonGame.c ****   for(int i = 0; i < game->info.sequenceLength; i++)
 263              		.loc 1 354 3 is_stmt 1 view .LVU66
 264              	.LBB5:
 265              		.loc 1 354 7 view .LVU67
 266              	.LVL20:
 267              		.loc 1 354 11 is_stmt 0 view .LVU68
 268 0004 0025     		movs	r5, #0
 269              		.loc 1 354 3 view .LVU69
 270 0006 0BE0     		b	.L22
 271              	.LVL21:
 272              	.L23:
 273              	.LBB6:
 355:Core/Src/SimonGame.c ****   {
 356:Core/Src/SimonGame.c ****     // select random numbers for the color sequence
 357:Core/Src/SimonGame.c ****     // 0 - Red, 1 - Blue, 2 - Yellow, 3 - Green
 358:Core/Src/SimonGame.c ****     int colorRandom = rand() % 4;
 274              		.loc 1 358 5 is_stmt 1 view .LVU70
 275              		.loc 1 358 23 is_stmt 0 view .LVU71
 276 0008 FFF7FEFF 		bl	rand
 277              	.LVL22:
 278              		.loc 1 358 9 discriminator 1 view .LVU72
 279 000c 4342     		rsbs	r3, r0, #0
 280 000e 00F00300 		and	r0, r0, #3
 281 0012 03F00303 		and	r3, r3, #3
 282 0016 58BF     		it	pl
 283 0018 5842     		rsbpl	r0, r3, #0
 284              	.LVL23:
 359:Core/Src/SimonGame.c **** 
 360:Core/Src/SimonGame.c ****     // Store the color code in the sequence array
 361:Core/Src/SimonGame.c ****     game->info.sequence[i] = colorRandom;
 285              		.loc 1 361 5 is_stmt 1 view .LVU73
 286              		.loc 1 361 28 is_stmt 0 view .LVU74
 287 001a 6319     		adds	r3, r4, r5
 288 001c 1873     		strb	r0, [r3, #12]
 289              	.LBE6:
 354:Core/Src/SimonGame.c ****   {
 290              		.loc 1 354 50 is_stmt 1 discriminator 3 view .LVU75
 291 001e 0135     		adds	r5, r5, #1
 292              	.LVL24:
 293              	.L22:
 354:Core/Src/SimonGame.c ****   {
 294              		.loc 1 354 20 discriminator 1 view .LVU76
 354:Core/Src/SimonGame.c ****   {
 295              		.loc 1 354 32 is_stmt 0 discriminator 1 view .LVU77
 296 0020 94F87030 		ldrb	r3, [r4, #112]	@ zero_extendqisi2
ARM GAS  C:\Users\elhyd\AppData\Local\Temp\ccbljKy4.s 			page 13


 354:Core/Src/SimonGame.c ****   {
 297              		.loc 1 354 20 discriminator 1 view .LVU78
 298 0024 AB42     		cmp	r3, r5
 299 0026 EFDC     		bgt	.L23
 300              	.LBE5:
 301              	.LBB7:
 362:Core/Src/SimonGame.c ****   }
 363:Core/Src/SimonGame.c **** 
 364:Core/Src/SimonGame.c ****   for(int i = 0; i < game->info.sequenceLength; i++)
 302              		.loc 1 364 11 view .LVU79
 303 0028 0025     		movs	r5, #0
 304              	.LVL25:
 305              		.loc 1 364 11 view .LVU80
 306 002a 13E0     		b	.L24
 307              	.LVL26:
 308              	.L30:
 365:Core/Src/SimonGame.c ****   {
 366:Core/Src/SimonGame.c ****     
 367:Core/Src/SimonGame.c ****     // Light up the corresponding LED based on the color code
 368:Core/Src/SimonGame.c ****     switch(game->info.sequence[i])
 369:Core/Src/SimonGame.c ****     {
 370:Core/Src/SimonGame.c ****       case 0: // Red
 371:Core/Src/SimonGame.c ****         HAL_GPIO_WritePin(LEDR_GPIO_Port, LEDR_Pin, GPIO_PIN_SET);
 309              		.loc 1 371 9 is_stmt 1 view .LVU81
 310 002c 364E     		ldr	r6, .L35
 311 002e 0122     		movs	r2, #1
 312 0030 4FF40061 		mov	r1, #2048
 313 0034 3046     		mov	r0, r6
 314 0036 FFF7FEFF 		bl	HAL_GPIO_WritePin
 315              	.LVL27:
 372:Core/Src/SimonGame.c ****         HAL_Delay(game->info.sequenceSpeed);
 316              		.loc 1 372 9 view .LVU82
 317 003a A068     		ldr	r0, [r4, #8]
 318 003c FFF7FEFF 		bl	HAL_Delay
 319              	.LVL28:
 373:Core/Src/SimonGame.c ****         HAL_GPIO_WritePin(LEDR_GPIO_Port, LEDR_Pin, GPIO_PIN_RESET);
 320              		.loc 1 373 9 view .LVU83
 321 0040 0022     		movs	r2, #0
 322 0042 4FF40061 		mov	r1, #2048
 323 0046 3046     		mov	r0, r6
 324 0048 FFF7FEFF 		bl	HAL_GPIO_WritePin
 325              	.LVL29:
 374:Core/Src/SimonGame.c ****         break;
 326              		.loc 1 374 9 view .LVU84
 327              	.L31:
 375:Core/Src/SimonGame.c ****       case 1: // Blue
 376:Core/Src/SimonGame.c ****         HAL_GPIO_WritePin(LEDB_GPIO_Port, LEDB_Pin, GPIO_PIN_SET);
 377:Core/Src/SimonGame.c ****         HAL_Delay(game->info.sequenceSpeed);
 378:Core/Src/SimonGame.c ****         HAL_GPIO_WritePin(LEDB_GPIO_Port, LEDB_Pin, GPIO_PIN_RESET);
 379:Core/Src/SimonGame.c ****         break;
 380:Core/Src/SimonGame.c ****       case 2: // Yellow
 381:Core/Src/SimonGame.c ****         HAL_GPIO_WritePin(LEDY_GPIO_Port, LEDY_Pin, GPIO_PIN_SET);
 382:Core/Src/SimonGame.c ****         HAL_Delay(game->info.sequenceSpeed);
 383:Core/Src/SimonGame.c ****         HAL_GPIO_WritePin(LEDY_GPIO_Port, LEDY_Pin, GPIO_PIN_RESET);
 384:Core/Src/SimonGame.c ****         break;
 385:Core/Src/SimonGame.c ****       case 3: // Green
 386:Core/Src/SimonGame.c ****         HAL_GPIO_WritePin(LEDG_GPIO_Port, LEDG_Pin, GPIO_PIN_SET);
ARM GAS  C:\Users\elhyd\AppData\Local\Temp\ccbljKy4.s 			page 14


 387:Core/Src/SimonGame.c ****         HAL_Delay(game->info.sequenceSpeed);
 388:Core/Src/SimonGame.c ****         HAL_GPIO_WritePin(LEDG_GPIO_Port, LEDG_Pin, GPIO_PIN_RESET);
 389:Core/Src/SimonGame.c ****         break;
 390:Core/Src/SimonGame.c ****       default:
 391:Core/Src/SimonGame.c ****         HAL_GPIO_WritePin(LEDR_GPIO_Port, LEDR_Pin, GPIO_PIN_RESET);
 392:Core/Src/SimonGame.c ****         HAL_GPIO_WritePin(LEDB_GPIO_Port, LEDB_Pin, GPIO_PIN_RESET);
 393:Core/Src/SimonGame.c ****         HAL_GPIO_WritePin(LEDY_GPIO_Port, LEDY_Pin, GPIO_PIN_RESET);
 394:Core/Src/SimonGame.c ****         HAL_GPIO_WritePin(LEDG_GPIO_Port, LEDG_Pin, GPIO_PIN_RESET);
 395:Core/Src/SimonGame.c ****         break;
 396:Core/Src/SimonGame.c ****     }
 397:Core/Src/SimonGame.c ****     HAL_Delay(200); // Short delay between colors
 328              		.loc 1 397 5 view .LVU85
 329 004c C820     		movs	r0, #200
 330 004e FFF7FEFF 		bl	HAL_Delay
 331              	.LVL30:
 364:Core/Src/SimonGame.c ****   {
 332              		.loc 1 364 50 discriminator 2 view .LVU86
 333 0052 0135     		adds	r5, r5, #1
 334              	.LVL31:
 335              	.L24:
 364:Core/Src/SimonGame.c ****   {
 336              		.loc 1 364 20 discriminator 1 view .LVU87
 364:Core/Src/SimonGame.c ****   {
 337              		.loc 1 364 32 is_stmt 0 discriminator 1 view .LVU88
 338 0054 94F87030 		ldrb	r3, [r4, #112]	@ zero_extendqisi2
 364:Core/Src/SimonGame.c ****   {
 339              		.loc 1 364 20 discriminator 1 view .LVU89
 340 0058 AB42     		cmp	r3, r5
 341 005a 53DD     		ble	.L34
 368:Core/Src/SimonGame.c ****     {
 342              		.loc 1 368 5 is_stmt 1 view .LVU90
 368:Core/Src/SimonGame.c ****     {
 343              		.loc 1 368 31 is_stmt 0 view .LVU91
 344 005c 6319     		adds	r3, r4, r5
 345 005e 1B7B     		ldrb	r3, [r3, #12]	@ zero_extendqisi2
 368:Core/Src/SimonGame.c ****     {
 346              		.loc 1 368 5 view .LVU92
 347 0060 032B     		cmp	r3, #3
 348 0062 38D8     		bhi	.L25
 349 0064 01A2     		adr	r2, .L27
 350 0066 52F823F0 		ldr	pc, [r2, r3, lsl #2]
 351 006a 00BF     		.p2align 2
 352              	.L27:
 353 006c 2D000000 		.word	.L30+1
 354 0070 7D000000 		.word	.L29+1
 355 0074 9B000000 		.word	.L28+1
 356 0078 B9000000 		.word	.L26+1
 357              		.p2align 1
 358              	.L29:
 376:Core/Src/SimonGame.c ****         HAL_Delay(game->info.sequenceSpeed);
 359              		.loc 1 376 9 is_stmt 1 view .LVU93
 360 007c 234E     		ldr	r6, .L35+4
 361 007e 0122     		movs	r2, #1
 362 0080 2021     		movs	r1, #32
 363 0082 3046     		mov	r0, r6
 364 0084 FFF7FEFF 		bl	HAL_GPIO_WritePin
 365              	.LVL32:
ARM GAS  C:\Users\elhyd\AppData\Local\Temp\ccbljKy4.s 			page 15


 377:Core/Src/SimonGame.c ****         HAL_GPIO_WritePin(LEDB_GPIO_Port, LEDB_Pin, GPIO_PIN_RESET);
 366              		.loc 1 377 9 view .LVU94
 367 0088 A068     		ldr	r0, [r4, #8]
 368 008a FFF7FEFF 		bl	HAL_Delay
 369              	.LVL33:
 378:Core/Src/SimonGame.c ****         break;
 370              		.loc 1 378 9 view .LVU95
 371 008e 0022     		movs	r2, #0
 372 0090 2021     		movs	r1, #32
 373 0092 3046     		mov	r0, r6
 374 0094 FFF7FEFF 		bl	HAL_GPIO_WritePin
 375              	.LVL34:
 379:Core/Src/SimonGame.c ****       case 2: // Yellow
 376              		.loc 1 379 9 view .LVU96
 377 0098 D8E7     		b	.L31
 378              	.L28:
 381:Core/Src/SimonGame.c ****         HAL_Delay(game->info.sequenceSpeed);
 379              		.loc 1 381 9 view .LVU97
 380 009a 1B4E     		ldr	r6, .L35
 381 009c 0122     		movs	r2, #1
 382 009e 0421     		movs	r1, #4
 383 00a0 3046     		mov	r0, r6
 384 00a2 FFF7FEFF 		bl	HAL_GPIO_WritePin
 385              	.LVL35:
 382:Core/Src/SimonGame.c ****         HAL_GPIO_WritePin(LEDY_GPIO_Port, LEDY_Pin, GPIO_PIN_RESET);
 386              		.loc 1 382 9 view .LVU98
 387 00a6 A068     		ldr	r0, [r4, #8]
 388 00a8 FFF7FEFF 		bl	HAL_Delay
 389              	.LVL36:
 383:Core/Src/SimonGame.c ****         break;
 390              		.loc 1 383 9 view .LVU99
 391 00ac 0022     		movs	r2, #0
 392 00ae 0421     		movs	r1, #4
 393 00b0 3046     		mov	r0, r6
 394 00b2 FFF7FEFF 		bl	HAL_GPIO_WritePin
 395              	.LVL37:
 384:Core/Src/SimonGame.c ****       case 3: // Green
 396              		.loc 1 384 9 view .LVU100
 397 00b6 C9E7     		b	.L31
 398              	.L26:
 386:Core/Src/SimonGame.c ****         HAL_Delay(game->info.sequenceSpeed);
 399              		.loc 1 386 9 view .LVU101
 400 00b8 154E     		ldr	r6, .L35+8
 401 00ba 0122     		movs	r2, #1
 402 00bc 1021     		movs	r1, #16
 403 00be 3046     		mov	r0, r6
 404 00c0 FFF7FEFF 		bl	HAL_GPIO_WritePin
 405              	.LVL38:
 387:Core/Src/SimonGame.c ****         HAL_GPIO_WritePin(LEDG_GPIO_Port, LEDG_Pin, GPIO_PIN_RESET);
 406              		.loc 1 387 9 view .LVU102
 407 00c4 A068     		ldr	r0, [r4, #8]
 408 00c6 FFF7FEFF 		bl	HAL_Delay
 409              	.LVL39:
 388:Core/Src/SimonGame.c ****         break;
 410              		.loc 1 388 9 view .LVU103
 411 00ca 0022     		movs	r2, #0
 412 00cc 1021     		movs	r1, #16
ARM GAS  C:\Users\elhyd\AppData\Local\Temp\ccbljKy4.s 			page 16


 413 00ce 3046     		mov	r0, r6
 414 00d0 FFF7FEFF 		bl	HAL_GPIO_WritePin
 415              	.LVL40:
 389:Core/Src/SimonGame.c ****       default:
 416              		.loc 1 389 9 view .LVU104
 417 00d4 BAE7     		b	.L31
 418              	.L25:
 391:Core/Src/SimonGame.c ****         HAL_GPIO_WritePin(LEDB_GPIO_Port, LEDB_Pin, GPIO_PIN_RESET);
 419              		.loc 1 391 9 view .LVU105
 420 00d6 0C4E     		ldr	r6, .L35
 421 00d8 0022     		movs	r2, #0
 422 00da 4FF40061 		mov	r1, #2048
 423 00de 3046     		mov	r0, r6
 424 00e0 FFF7FEFF 		bl	HAL_GPIO_WritePin
 425              	.LVL41:
 392:Core/Src/SimonGame.c ****         HAL_GPIO_WritePin(LEDY_GPIO_Port, LEDY_Pin, GPIO_PIN_RESET);
 426              		.loc 1 392 9 view .LVU106
 427 00e4 0022     		movs	r2, #0
 428 00e6 2021     		movs	r1, #32
 429 00e8 0848     		ldr	r0, .L35+4
 430 00ea FFF7FEFF 		bl	HAL_GPIO_WritePin
 431              	.LVL42:
 393:Core/Src/SimonGame.c ****         HAL_GPIO_WritePin(LEDG_GPIO_Port, LEDG_Pin, GPIO_PIN_RESET);
 432              		.loc 1 393 9 view .LVU107
 433 00ee 0022     		movs	r2, #0
 434 00f0 0421     		movs	r1, #4
 435 00f2 3046     		mov	r0, r6
 436 00f4 FFF7FEFF 		bl	HAL_GPIO_WritePin
 437              	.LVL43:
 394:Core/Src/SimonGame.c ****         break;
 438              		.loc 1 394 9 view .LVU108
 439 00f8 0022     		movs	r2, #0
 440 00fa 1021     		movs	r1, #16
 441 00fc 0448     		ldr	r0, .L35+8
 442 00fe FFF7FEFF 		bl	HAL_GPIO_WritePin
 443              	.LVL44:
 395:Core/Src/SimonGame.c ****     }
 444              		.loc 1 395 9 view .LVU109
 445 0102 A3E7     		b	.L31
 446              	.L34:
 447              	.LBE7:
 398:Core/Src/SimonGame.c ****   }
 399:Core/Src/SimonGame.c **** }
 448              		.loc 1 399 1 is_stmt 0 view .LVU110
 449 0104 70BD     		pop	{r4, r5, r6, pc}
 450              	.LVL45:
 451              	.L36:
 452              		.loc 1 399 1 view .LVU111
 453 0106 00BF     		.align	2
 454              	.L35:
 455 0108 00040048 		.word	1207960576
 456 010c 00080048 		.word	1207961600
 457 0110 00100048 		.word	1207963648
 458              		.cfi_endproc
 459              	.LFE1111:
 461              		.section	.text.debounceButtons,"ax",%progbits
 462              		.align	1
ARM GAS  C:\Users\elhyd\AppData\Local\Temp\ccbljKy4.s 			page 17


 463              		.global	debounceButtons
 464              		.syntax unified
 465              		.thumb
 466              		.thumb_func
 468              	debounceButtons:
 469              	.LVL46:
 470              	.LFB1112:
 400:Core/Src/SimonGame.c **** 
 401:Core/Src/SimonGame.c **** void debounceButtons(GPIO_TypeDef *port, uint16_t pin, Button *button)
 402:Core/Src/SimonGame.c **** {
 471              		.loc 1 402 1 is_stmt 1 view -0
 472              		.cfi_startproc
 473              		@ args = 0, pretend = 0, frame = 0
 474              		@ frame_needed = 0, uses_anonymous_args = 0
 475              		.loc 1 402 1 is_stmt 0 view .LVU113
 476 0000 10B5     		push	{r4, lr}
 477              		.cfi_def_cfa_offset 8
 478              		.cfi_offset 4, -8
 479              		.cfi_offset 14, -4
 480 0002 1446     		mov	r4, r2
 403:Core/Src/SimonGame.c ****   switch(button->state)
 481              		.loc 1 403 3 is_stmt 1 view .LVU114
 482              		.loc 1 403 16 is_stmt 0 view .LVU115
 483 0004 5378     		ldrb	r3, [r2, #1]	@ zero_extendqisi2
 484              		.loc 1 403 3 view .LVU116
 485 0006 012B     		cmp	r3, #1
 486 0008 08D0     		beq	.L38
 487 000a 022B     		cmp	r3, #2
 488 000c 15D0     		beq	.L39
 489 000e C3B9     		cbnz	r3, .L37
 404:Core/Src/SimonGame.c ****   {
 405:Core/Src/SimonGame.c ****     case 0: // idle, waiting for press
 406:Core/Src/SimonGame.c ****       if(HAL_GPIO_ReadPin(port, pin) == GPIO_PIN_RESET)
 490              		.loc 1 406 7 is_stmt 1 view .LVU117
 491              		.loc 1 406 10 is_stmt 0 view .LVU118
 492 0010 FFF7FEFF 		bl	HAL_GPIO_ReadPin
 493              	.LVL47:
 494              		.loc 1 406 9 discriminator 1 view .LVU119
 495 0014 A8B9     		cbnz	r0, .L37
 407:Core/Src/SimonGame.c ****         button->state = 1;
 496              		.loc 1 407 9 is_stmt 1 view .LVU120
 497              		.loc 1 407 23 is_stmt 0 view .LVU121
 498 0016 0123     		movs	r3, #1
 499 0018 6370     		strb	r3, [r4, #1]
 500 001a 12E0     		b	.L37
 501              	.LVL48:
 502              	.L38:
 408:Core/Src/SimonGame.c ****       break;
 409:Core/Src/SimonGame.c **** 
 410:Core/Src/SimonGame.c ****     case 1: // check stable low
 411:Core/Src/SimonGame.c ****       if(HAL_GPIO_ReadPin(port, pin) == GPIO_PIN_RESET)
 503              		.loc 1 411 7 is_stmt 1 view .LVU122
 504              		.loc 1 411 10 is_stmt 0 view .LVU123
 505 001c FFF7FEFF 		bl	HAL_GPIO_ReadPin
 506              	.LVL49:
 507              		.loc 1 411 9 discriminator 1 view .LVU124
 508 0020 10B1     		cbz	r0, .L43
ARM GAS  C:\Users\elhyd\AppData\Local\Temp\ccbljKy4.s 			page 18


 412:Core/Src/SimonGame.c ****       {
 413:Core/Src/SimonGame.c ****         button->stable = 1;   // REGISTER PRESS
 414:Core/Src/SimonGame.c ****         button->state = 2;
 415:Core/Src/SimonGame.c ****         HAL_GPIO_WritePin(button->port, button->pin, GPIO_PIN_SET);
 416:Core/Src/SimonGame.c ****       }
 417:Core/Src/SimonGame.c ****       else
 418:Core/Src/SimonGame.c ****         button->state = 0;
 509              		.loc 1 418 9 is_stmt 1 view .LVU125
 510              		.loc 1 418 23 is_stmt 0 view .LVU126
 511 0022 0023     		movs	r3, #0
 512 0024 6370     		strb	r3, [r4, #1]
 513 0026 0CE0     		b	.L37
 514              	.L43:
 413:Core/Src/SimonGame.c ****         button->state = 2;
 515              		.loc 1 413 9 is_stmt 1 view .LVU127
 413:Core/Src/SimonGame.c ****         button->state = 2;
 516              		.loc 1 413 24 is_stmt 0 view .LVU128
 517 0028 0122     		movs	r2, #1
 518 002a 2270     		strb	r2, [r4]
 414:Core/Src/SimonGame.c ****         HAL_GPIO_WritePin(button->port, button->pin, GPIO_PIN_SET);
 519              		.loc 1 414 9 is_stmt 1 view .LVU129
 414:Core/Src/SimonGame.c ****         HAL_GPIO_WritePin(button->port, button->pin, GPIO_PIN_SET);
 520              		.loc 1 414 23 is_stmt 0 view .LVU130
 521 002c 0223     		movs	r3, #2
 522 002e 6370     		strb	r3, [r4, #1]
 415:Core/Src/SimonGame.c ****       }
 523              		.loc 1 415 9 is_stmt 1 view .LVU131
 524 0030 2189     		ldrh	r1, [r4, #8]
 525 0032 6068     		ldr	r0, [r4, #4]
 526 0034 FFF7FEFF 		bl	HAL_GPIO_WritePin
 527              	.LVL50:
 528 0038 03E0     		b	.L37
 529              	.LVL51:
 530              	.L39:
 419:Core/Src/SimonGame.c ****       break;
 420:Core/Src/SimonGame.c **** 
 421:Core/Src/SimonGame.c ****     case 2: // wait for release
 422:Core/Src/SimonGame.c ****         if(HAL_GPIO_ReadPin(port, pin) == GPIO_PIN_SET)
 531              		.loc 1 422 9 view .LVU132
 532              		.loc 1 422 12 is_stmt 0 view .LVU133
 533 003a FFF7FEFF 		bl	HAL_GPIO_ReadPin
 534              	.LVL52:
 535              		.loc 1 422 11 discriminator 1 view .LVU134
 536 003e 0128     		cmp	r0, #1
 537 0040 00D0     		beq	.L44
 538              	.L37:
 423:Core/Src/SimonGame.c ****         {
 424:Core/Src/SimonGame.c ****           button->state = 0;
 425:Core/Src/SimonGame.c ****           HAL_GPIO_WritePin(button->port, button->pin, GPIO_PIN_RESET);
 426:Core/Src/SimonGame.c ****         }
 427:Core/Src/SimonGame.c ****         break;
 428:Core/Src/SimonGame.c ****   }
 429:Core/Src/SimonGame.c **** }
 539              		.loc 1 429 1 view .LVU135
 540 0042 10BD     		pop	{r4, pc}
 541              	.LVL53:
 542              	.L44:
ARM GAS  C:\Users\elhyd\AppData\Local\Temp\ccbljKy4.s 			page 19


 424:Core/Src/SimonGame.c ****           HAL_GPIO_WritePin(button->port, button->pin, GPIO_PIN_RESET);
 543              		.loc 1 424 11 is_stmt 1 view .LVU136
 424:Core/Src/SimonGame.c ****           HAL_GPIO_WritePin(button->port, button->pin, GPIO_PIN_RESET);
 544              		.loc 1 424 25 is_stmt 0 view .LVU137
 545 0044 0022     		movs	r2, #0
 546 0046 6270     		strb	r2, [r4, #1]
 425:Core/Src/SimonGame.c ****         }
 547              		.loc 1 425 11 is_stmt 1 view .LVU138
 548 0048 2189     		ldrh	r1, [r4, #8]
 549 004a 6068     		ldr	r0, [r4, #4]
 550 004c FFF7FEFF 		bl	HAL_GPIO_WritePin
 551              	.LVL54:
 552              		.loc 1 429 1 is_stmt 0 view .LVU139
 553 0050 F7E7     		b	.L37
 554              		.cfi_endproc
 555              	.LFE1112:
 557              		.section	.rodata.getButtonPressed.str1.4,"aMS",%progbits,1
 558              		.align	2
 559              	.LC0:
 560 0000 52656420 		.ascii	"Red pressed\015\012\000"
 560      70726573 
 560      7365640D 
 560      0A00
 561 000e 0000     		.align	2
 562              	.LC1:
 563 0010 426C7565 		.ascii	"Blue pressed\015\012\000"
 563      20707265 
 563      73736564 
 563      0D0A00
 564 001f 00       		.align	2
 565              	.LC2:
 566 0020 59656C6C 		.ascii	"Yellow pressed\015\012\000"
 566      6F772070 
 566      72657373 
 566      65640D0A 
 566      00
 567 0031 000000   		.align	2
 568              	.LC3:
 569 0034 47726565 		.ascii	"Green pressed\015\012\000"
 569      6E207072 
 569      65737365 
 569      640D0A00 
 570              		.section	.text.getButtonPressed,"ax",%progbits
 571              		.align	1
 572              		.global	getButtonPressed
 573              		.syntax unified
 574              		.thumb
 575              		.thumb_func
 577              	getButtonPressed:
 578              	.LFB1113:
 430:Core/Src/SimonGame.c **** 
 431:Core/Src/SimonGame.c **** /**
 432:Core/Src/SimonGame.c ****  * @brief Helper function created for checking if which color button was pressed.
 433:Core/Src/SimonGame.c ****  * 
 434:Core/Src/SimonGame.c ****  * @return int button index: 0-Red, 1-Blue, 2-Yellow, 3-Green, -1 no button pressed
 435:Core/Src/SimonGame.c ****  */
 436:Core/Src/SimonGame.c **** int getButtonPressed()
ARM GAS  C:\Users\elhyd\AppData\Local\Temp\ccbljKy4.s 			page 20


 437:Core/Src/SimonGame.c **** {
 579              		.loc 1 437 1 is_stmt 1 view -0
 580              		.cfi_startproc
 581              		@ args = 0, pretend = 0, frame = 0
 582              		@ frame_needed = 0, uses_anonymous_args = 0
 583 0000 70B5     		push	{r4, r5, r6, lr}
 584              		.cfi_def_cfa_offset 16
 585              		.cfi_offset 4, -16
 586              		.cfi_offset 5, -12
 587              		.cfi_offset 6, -8
 588              		.cfi_offset 14, -4
 438:Core/Src/SimonGame.c ****   static char msg[500] = {0}; 
 589              		.loc 1 438 3 view .LVU141
 439:Core/Src/SimonGame.c ****   if(redButton.stable)
 590              		.loc 1 439 3 view .LVU142
 591              		.loc 1 439 15 is_stmt 0 view .LVU143
 592 0002 354B     		ldr	r3, .L55
 593 0004 1B78     		ldrb	r3, [r3]	@ zero_extendqisi2
 594              		.loc 1 439 5 view .LVU144
 595 0006 FBB9     		cbnz	r3, .L52
 440:Core/Src/SimonGame.c ****   { 
 441:Core/Src/SimonGame.c ****     redButton.stable = 0;
 442:Core/Src/SimonGame.c ****     snprintf(msg, sizeof(msg), "Red pressed\r\n");
 443:Core/Src/SimonGame.c ****     HAL_UART_Transmit(&huart1, (uint8_t*)msg, strlen(msg), 1000);
 444:Core/Src/SimonGame.c ****     return 0; 
 445:Core/Src/SimonGame.c ****   }
 446:Core/Src/SimonGame.c ****   else if(blueButton.stable) 
 596              		.loc 1 446 8 is_stmt 1 view .LVU145
 597              		.loc 1 446 21 is_stmt 0 view .LVU146
 598 0008 344B     		ldr	r3, .L55+4
 599 000a 1B78     		ldrb	r3, [r3]	@ zero_extendqisi2
 600              		.loc 1 446 10 view .LVU147
 601 000c 002B     		cmp	r3, #0
 602 000e 32D1     		bne	.L53
 447:Core/Src/SimonGame.c ****   { 
 448:Core/Src/SimonGame.c ****     blueButton.stable = 0;
 449:Core/Src/SimonGame.c ****     snprintf(msg, sizeof(msg), "Blue pressed\r\n");
 450:Core/Src/SimonGame.c ****     HAL_UART_Transmit(&huart1, (uint8_t*)msg, strlen(msg), 1000);
 451:Core/Src/SimonGame.c ****     return 1; 
 452:Core/Src/SimonGame.c ****   }
 453:Core/Src/SimonGame.c ****   else if(yellowButton.stable) 
 603              		.loc 1 453 8 is_stmt 1 view .LVU148
 604              		.loc 1 453 23 is_stmt 0 view .LVU149
 605 0010 334B     		ldr	r3, .L55+8
 606 0012 1B78     		ldrb	r3, [r3]	@ zero_extendqisi2
 607              		.loc 1 453 10 view .LVU150
 608 0014 002B     		cmp	r3, #0
 609 0016 46D1     		bne	.L54
 454:Core/Src/SimonGame.c ****   {
 455:Core/Src/SimonGame.c ****     yellowButton.stable = 0;
 456:Core/Src/SimonGame.c ****     snprintf(msg, sizeof(msg), "Yellow pressed\r\n");
 457:Core/Src/SimonGame.c ****     HAL_UART_Transmit(&huart1, (uint8_t*)msg, strlen(msg), 1000);
 458:Core/Src/SimonGame.c ****     return 2; 
 459:Core/Src/SimonGame.c ****   }
 460:Core/Src/SimonGame.c ****   else if(greenButton.stable)
 610              		.loc 1 460 8 is_stmt 1 view .LVU151
 611              		.loc 1 460 22 is_stmt 0 view .LVU152
ARM GAS  C:\Users\elhyd\AppData\Local\Temp\ccbljKy4.s 			page 21


 612 0018 324B     		ldr	r3, .L55+12
 613 001a 1B78     		ldrb	r3, [r3]	@ zero_extendqisi2
 614              		.loc 1 460 10 view .LVU153
 615 001c 002B     		cmp	r3, #0
 616 001e 58D0     		beq	.L50
 461:Core/Src/SimonGame.c ****   {  
 462:Core/Src/SimonGame.c ****     greenButton.stable = 0;
 617              		.loc 1 462 5 is_stmt 1 view .LVU154
 618              		.loc 1 462 24 is_stmt 0 view .LVU155
 619 0020 304B     		ldr	r3, .L55+12
 620 0022 0022     		movs	r2, #0
 621 0024 1A70     		strb	r2, [r3]
 463:Core/Src/SimonGame.c ****     snprintf(msg, sizeof(msg), "Green pressed\r\n");
 622              		.loc 1 463 5 is_stmt 1 view .LVU156
 623 0026 304C     		ldr	r4, .L55+16
 624 0028 304B     		ldr	r3, .L55+20
 625 002a 0FCB     		ldm	r3, {r0, r1, r2, r3}
 626 002c 84E80F00 		stm	r4, {r0, r1, r2, r3}
 464:Core/Src/SimonGame.c ****     HAL_UART_Transmit(&huart1, (uint8_t*)msg, strlen(msg), 1000);
 627              		.loc 1 464 5 view .LVU157
 628              		.loc 1 464 47 is_stmt 0 view .LVU158
 629 0030 2046     		mov	r0, r4
 630 0032 FFF7FEFF 		bl	strlen
 631              	.LVL55:
 632              		.loc 1 464 5 discriminator 1 view .LVU159
 633 0036 4FF47A73 		mov	r3, #1000
 634 003a 82B2     		uxth	r2, r0
 635 003c 2146     		mov	r1, r4
 636 003e 2C48     		ldr	r0, .L55+24
 637 0040 FFF7FEFF 		bl	HAL_UART_Transmit
 638              	.LVL56:
 465:Core/Src/SimonGame.c ****     return 3; 
 639              		.loc 1 465 5 is_stmt 1 view .LVU160
 640              		.loc 1 465 12 is_stmt 0 view .LVU161
 641 0044 0320     		movs	r0, #3
 642              	.L45:
 466:Core/Src/SimonGame.c ****   }
 467:Core/Src/SimonGame.c ****   else
 468:Core/Src/SimonGame.c ****   { return -1; }// no button pressed
 469:Core/Src/SimonGame.c **** }
 643              		.loc 1 469 1 view .LVU162
 644 0046 70BD     		pop	{r4, r5, r6, pc}
 645              	.L52:
 441:Core/Src/SimonGame.c ****     snprintf(msg, sizeof(msg), "Red pressed\r\n");
 646              		.loc 1 441 5 is_stmt 1 view .LVU163
 441:Core/Src/SimonGame.c ****     snprintf(msg, sizeof(msg), "Red pressed\r\n");
 647              		.loc 1 441 22 is_stmt 0 view .LVU164
 648 0048 0024     		movs	r4, #0
 649 004a 234B     		ldr	r3, .L55
 650 004c 1C70     		strb	r4, [r3]
 442:Core/Src/SimonGame.c ****     HAL_UART_Transmit(&huart1, (uint8_t*)msg, strlen(msg), 1000);
 651              		.loc 1 442 5 is_stmt 1 view .LVU165
 652 004e 264D     		ldr	r5, .L55+16
 653 0050 284B     		ldr	r3, .L55+28
 654 0052 AC46     		mov	ip, r5
 655 0054 0FCB     		ldm	r3, {r0, r1, r2, r3}
 656 0056 ACE80700 		stmia	ip!, {r0, r1, r2}
ARM GAS  C:\Users\elhyd\AppData\Local\Temp\ccbljKy4.s 			page 22


 657 005a ACF80030 		strh	r3, [ip]	@ movhi
 443:Core/Src/SimonGame.c ****     return 0; 
 658              		.loc 1 443 5 view .LVU166
 443:Core/Src/SimonGame.c ****     return 0; 
 659              		.loc 1 443 47 is_stmt 0 view .LVU167
 660 005e 2846     		mov	r0, r5
 661 0060 FFF7FEFF 		bl	strlen
 662              	.LVL57:
 443:Core/Src/SimonGame.c ****     return 0; 
 663              		.loc 1 443 5 discriminator 1 view .LVU168
 664 0064 4FF47A73 		mov	r3, #1000
 665 0068 82B2     		uxth	r2, r0
 666 006a 2946     		mov	r1, r5
 667 006c 2048     		ldr	r0, .L55+24
 668 006e FFF7FEFF 		bl	HAL_UART_Transmit
 669              	.LVL58:
 444:Core/Src/SimonGame.c ****   }
 670              		.loc 1 444 5 is_stmt 1 view .LVU169
 444:Core/Src/SimonGame.c ****   }
 671              		.loc 1 444 12 is_stmt 0 view .LVU170
 672 0072 2046     		mov	r0, r4
 673 0074 E7E7     		b	.L45
 674              	.L53:
 448:Core/Src/SimonGame.c ****     snprintf(msg, sizeof(msg), "Blue pressed\r\n");
 675              		.loc 1 448 5 is_stmt 1 view .LVU171
 448:Core/Src/SimonGame.c ****     snprintf(msg, sizeof(msg), "Blue pressed\r\n");
 676              		.loc 1 448 23 is_stmt 0 view .LVU172
 677 0076 194B     		ldr	r3, .L55+4
 678 0078 0022     		movs	r2, #0
 679 007a 1A70     		strb	r2, [r3]
 449:Core/Src/SimonGame.c ****     HAL_UART_Transmit(&huart1, (uint8_t*)msg, strlen(msg), 1000);
 680              		.loc 1 449 5 is_stmt 1 view .LVU173
 681 007c 1A4D     		ldr	r5, .L55+16
 682 007e 1E4B     		ldr	r3, .L55+32
 683 0080 2C46     		mov	r4, r5
 684 0082 0FCB     		ldm	r3, {r0, r1, r2, r3}
 685 0084 07C4     		stmia	r4!, {r0, r1, r2}
 686 0086 24F8023B 		strh	r3, [r4], #2	@ movhi
 687 008a 1B0C     		lsrs	r3, r3, #16
 688 008c 2370     		strb	r3, [r4]
 450:Core/Src/SimonGame.c ****     return 1; 
 689              		.loc 1 450 5 view .LVU174
 450:Core/Src/SimonGame.c ****     return 1; 
 690              		.loc 1 450 47 is_stmt 0 view .LVU175
 691 008e 2846     		mov	r0, r5
 692 0090 FFF7FEFF 		bl	strlen
 693              	.LVL59:
 450:Core/Src/SimonGame.c ****     return 1; 
 694              		.loc 1 450 5 discriminator 1 view .LVU176
 695 0094 4FF47A73 		mov	r3, #1000
 696 0098 82B2     		uxth	r2, r0
 697 009a 2946     		mov	r1, r5
 698 009c 1448     		ldr	r0, .L55+24
 699 009e FFF7FEFF 		bl	HAL_UART_Transmit
 700              	.LVL60:
 451:Core/Src/SimonGame.c ****   }
 701              		.loc 1 451 5 is_stmt 1 view .LVU177
ARM GAS  C:\Users\elhyd\AppData\Local\Temp\ccbljKy4.s 			page 23


 451:Core/Src/SimonGame.c ****   }
 702              		.loc 1 451 12 is_stmt 0 view .LVU178
 703 00a2 0120     		movs	r0, #1
 704 00a4 CFE7     		b	.L45
 705              	.L54:
 455:Core/Src/SimonGame.c ****     snprintf(msg, sizeof(msg), "Yellow pressed\r\n");
 706              		.loc 1 455 5 is_stmt 1 view .LVU179
 455:Core/Src/SimonGame.c ****     snprintf(msg, sizeof(msg), "Yellow pressed\r\n");
 707              		.loc 1 455 25 is_stmt 0 view .LVU180
 708 00a6 0E4B     		ldr	r3, .L55+8
 709 00a8 0022     		movs	r2, #0
 710 00aa 1A70     		strb	r2, [r3]
 456:Core/Src/SimonGame.c ****     HAL_UART_Transmit(&huart1, (uint8_t*)msg, strlen(msg), 1000);
 711              		.loc 1 456 5 is_stmt 1 view .LVU181
 712 00ac 0E4E     		ldr	r6, .L55+16
 713 00ae 3446     		mov	r4, r6
 714 00b0 124D     		ldr	r5, .L55+36
 715 00b2 0FCD     		ldmia	r5!, {r0, r1, r2, r3}
 716 00b4 0FC4     		stmia	r4!, {r0, r1, r2, r3}
 717 00b6 2B68     		ldr	r3, [r5]
 718 00b8 2370     		strb	r3, [r4]
 457:Core/Src/SimonGame.c ****     return 2; 
 719              		.loc 1 457 5 view .LVU182
 457:Core/Src/SimonGame.c ****     return 2; 
 720              		.loc 1 457 47 is_stmt 0 view .LVU183
 721 00ba 3046     		mov	r0, r6
 722 00bc FFF7FEFF 		bl	strlen
 723              	.LVL61:
 457:Core/Src/SimonGame.c ****     return 2; 
 724              		.loc 1 457 5 discriminator 1 view .LVU184
 725 00c0 4FF47A73 		mov	r3, #1000
 726 00c4 82B2     		uxth	r2, r0
 727 00c6 3146     		mov	r1, r6
 728 00c8 0948     		ldr	r0, .L55+24
 729 00ca FFF7FEFF 		bl	HAL_UART_Transmit
 730              	.LVL62:
 458:Core/Src/SimonGame.c ****   }
 731              		.loc 1 458 5 is_stmt 1 view .LVU185
 458:Core/Src/SimonGame.c ****   }
 732              		.loc 1 458 12 is_stmt 0 view .LVU186
 733 00ce 0220     		movs	r0, #2
 734 00d0 B9E7     		b	.L45
 735              	.L50:
 468:Core/Src/SimonGame.c **** }
 736              		.loc 1 468 12 view .LVU187
 737 00d2 4FF0FF30 		mov	r0, #-1
 738 00d6 B6E7     		b	.L45
 739              	.L56:
 740              		.align	2
 741              	.L55:
 742 00d8 00000000 		.word	redButton
 743 00dc 00000000 		.word	blueButton
 744 00e0 00000000 		.word	yellowButton
 745 00e4 00000000 		.word	greenButton
 746 00e8 00000000 		.word	msg.0
 747 00ec 34000000 		.word	.LC3
 748 00f0 00000000 		.word	huart1
ARM GAS  C:\Users\elhyd\AppData\Local\Temp\ccbljKy4.s 			page 24


 749 00f4 00000000 		.word	.LC0
 750 00f8 10000000 		.word	.LC1
 751 00fc 20000000 		.word	.LC2
 752              		.cfi_endproc
 753              	.LFE1113:
 755              		.section	.text.playerTurn,"ax",%progbits
 756              		.align	1
 757              		.global	playerTurn
 758              		.syntax unified
 759              		.thumb
 760              		.thumb_func
 762              	playerTurn:
 763              	.LVL63:
 764              	.LFB1114:
 470:Core/Src/SimonGame.c **** 
 471:Core/Src/SimonGame.c **** /**
 472:Core/Src/SimonGame.c ****  * @brief  Handle the player's turn in the game.
 473:Core/Src/SimonGame.c ****  * @param  game: Pointer to the Game structure.
 474:Core/Src/SimonGame.c ****  */
 475:Core/Src/SimonGame.c **** void playerTurn(Game* game)
 476:Core/Src/SimonGame.c **** {
 765              		.loc 1 476 1 is_stmt 1 view -0
 766              		.cfi_startproc
 767              		@ args = 0, pretend = 0, frame = 0
 768              		@ frame_needed = 0, uses_anonymous_args = 0
 769              		.loc 1 476 1 is_stmt 0 view .LVU189
 770 0000 38B5     		push	{r3, r4, r5, lr}
 771              		.cfi_def_cfa_offset 16
 772              		.cfi_offset 3, -16
 773              		.cfi_offset 4, -12
 774              		.cfi_offset 5, -8
 775              		.cfi_offset 14, -4
 776 0002 0546     		mov	r5, r0
 477:Core/Src/SimonGame.c ****   int buttonIndex;
 777              		.loc 1 477 3 is_stmt 1 view .LVU190
 478:Core/Src/SimonGame.c ****   
 479:Core/Src/SimonGame.c ****   for(int i = 0; i < game->info.sequenceLength; i++)
 778              		.loc 1 479 3 view .LVU191
 779              	.LBB8:
 780              		.loc 1 479 7 view .LVU192
 781              	.LVL64:
 782              		.loc 1 479 11 is_stmt 0 view .LVU193
 783 0004 0024     		movs	r4, #0
 784              		.loc 1 479 3 view .LVU194
 785 0006 03E0     		b	.L58
 786              	.LVL65:
 787              	.L60:
 480:Core/Src/SimonGame.c ****   {
 481:Core/Src/SimonGame.c ****     // // Reset and start timer for player's input timeout
 482:Core/Src/SimonGame.c ****     // buttonTimer = 0;    
 483:Core/Src/SimonGame.c ****     // __HAL_TIM_SET_COUNTER(&htim2, 0);
 484:Core/Src/SimonGame.c **** 
 485:Core/Src/SimonGame.c ****     buttonIndex = -1;
 486:Core/Src/SimonGame.c ****     
 487:Core/Src/SimonGame.c ****     //while (buttonTimer < (300*game->info.sequenceLength) ) // 30 seconds timeout
 488:Core/Src/SimonGame.c ****     while(buttonIndex < 0)
 489:Core/Src/SimonGame.c ****     {
ARM GAS  C:\Users\elhyd\AppData\Local\Temp\ccbljKy4.s 			page 25


 490:Core/Src/SimonGame.c ****       buttonIndex = getButtonPressed();
 491:Core/Src/SimonGame.c ****       if(buttonIndex >= 0)
 492:Core/Src/SimonGame.c ****       {
 493:Core/Src/SimonGame.c ****         game->info.playerInputs[game->info.currentPlayer - 1][i] = buttonIndex;
 494:Core/Src/SimonGame.c ****         break; 
 495:Core/Src/SimonGame.c ****       }
 496:Core/Src/SimonGame.c ****     }
 497:Core/Src/SimonGame.c ****     
 498:Core/Src/SimonGame.c ****     HAL_Delay(120);
 788              		.loc 1 498 5 is_stmt 1 view .LVU195
 789 0008 7820     		movs	r0, #120
 790              	.LVL66:
 791              		.loc 1 498 5 is_stmt 0 view .LVU196
 792 000a FFF7FEFF 		bl	HAL_Delay
 793              	.LVL67:
 479:Core/Src/SimonGame.c ****   {
 794              		.loc 1 479 50 is_stmt 1 discriminator 2 view .LVU197
 795 000e 0134     		adds	r4, r4, #1
 796              	.LVL68:
 797              	.L58:
 479:Core/Src/SimonGame.c ****   {
 798              		.loc 1 479 20 discriminator 1 view .LVU198
 479:Core/Src/SimonGame.c ****   {
 799              		.loc 1 479 32 is_stmt 0 discriminator 1 view .LVU199
 800 0010 95F87030 		ldrb	r3, [r5, #112]	@ zero_extendqisi2
 479:Core/Src/SimonGame.c ****   {
 801              		.loc 1 479 20 discriminator 1 view .LVU200
 802 0014 A342     		cmp	r3, r4
 803 0016 10DD     		ble	.L64
 485:Core/Src/SimonGame.c ****     
 804              		.loc 1 485 17 view .LVU201
 805 0018 4FF0FF30 		mov	r0, #-1
 806              	.L59:
 807              	.LVL69:
 488:Core/Src/SimonGame.c ****     {
 808              		.loc 1 488 23 is_stmt 1 view .LVU202
 809 001c 0028     		cmp	r0, #0
 810 001e F3DA     		bge	.L60
 490:Core/Src/SimonGame.c ****       if(buttonIndex >= 0)
 811              		.loc 1 490 7 view .LVU203
 490:Core/Src/SimonGame.c ****       if(buttonIndex >= 0)
 812              		.loc 1 490 21 is_stmt 0 view .LVU204
 813 0020 FFF7FEFF 		bl	getButtonPressed
 814              	.LVL70:
 491:Core/Src/SimonGame.c ****       {
 815              		.loc 1 491 7 is_stmt 1 view .LVU205
 491:Core/Src/SimonGame.c ****       {
 816              		.loc 1 491 9 is_stmt 0 view .LVU206
 817 0024 0028     		cmp	r0, #0
 491:Core/Src/SimonGame.c ****       {
 818              		.loc 1 491 9 view .LVU207
 819 0026 F9DB     		blt	.L59
 493:Core/Src/SimonGame.c ****         break; 
 820              		.loc 1 493 9 is_stmt 1 view .LVU208
 493:Core/Src/SimonGame.c ****         break; 
 821              		.loc 1 493 43 is_stmt 0 view .LVU209
 822 0028 6B79     		ldrb	r3, [r5, #5]	@ zero_extendqisi2
ARM GAS  C:\Users\elhyd\AppData\Local\Temp\ccbljKy4.s 			page 26


 493:Core/Src/SimonGame.c ****         break; 
 823              		.loc 1 493 58 view .LVU210
 824 002a 013B     		subs	r3, r3, #1
 493:Core/Src/SimonGame.c ****         break; 
 825              		.loc 1 493 66 view .LVU211
 826 002c 6422     		movs	r2, #100
 827 002e 02FB0353 		mla	r3, r2, r3, r5
 828 0032 2344     		add	r3, r3, r4
 829 0034 83F87200 		strb	r0, [r3, #114]
 494:Core/Src/SimonGame.c ****       }
 830              		.loc 1 494 9 is_stmt 1 view .LVU212
 831 0038 E6E7     		b	.L60
 832              	.LVL71:
 833              	.L64:
 494:Core/Src/SimonGame.c ****       }
 834              		.loc 1 494 9 is_stmt 0 view .LVU213
 835              	.LBE8:
 499:Core/Src/SimonGame.c ****     // Short delay between colors
 500:Core/Src/SimonGame.c ****     // if(buttonTimer >= (300*game->info.sequenceLength)) // Timeout occurred
 501:Core/Src/SimonGame.c ****     // {
 502:Core/Src/SimonGame.c ****     //   game->state = GAME_RESULT;
 503:Core/Src/SimonGame.c ****     //   return;
 504:Core/Src/SimonGame.c ****     // }
 505:Core/Src/SimonGame.c ****   }
 506:Core/Src/SimonGame.c **** }
 836              		.loc 1 506 1 view .LVU214
 837 003a 38BD     		pop	{r3, r4, r5, pc}
 838              		.loc 1 506 1 view .LVU215
 839              		.cfi_endproc
 840              	.LFE1114:
 842              		.section	.rodata.Game_Run.str1.4,"aMS",%progbits,1
 843              		.align	2
 844              	.LC4:
 845 0000 57656C63 		.ascii	"Welcome to the\000"
 845      6F6D6520 
 845      746F2074 
 845      686500
 846 000f 00       		.align	2
 847              	.LC5:
 848 0010 53696D6F 		.ascii	"Simon Game\000"
 848      6E204761 
 848      6D6500
 849 001b 00       		.align	2
 850              	.LC6:
 851 001c 50757368 		.ascii	"Push To Start!\000"
 851      20546F20 
 851      53746172 
 851      742100
 852 002b 00       		.align	2
 853              	.LC7:
 854 002c 3120706C 		.ascii	"1 player OR\000"
 854      61796572 
 854      204F5200 
 855              		.align	2
 856              	.LC8:
 857 0038 3220706C 		.ascii	"2 players?\000"
 857      61796572 
ARM GAS  C:\Users\elhyd\AppData\Local\Temp\ccbljKy4.s 			page 27


 857      733F00
 858 0043 00       		.align	2
 859              	.LC9:
 860 0044 3C313E20 		.ascii	"<1> player OR\000"
 860      706C6179 
 860      6572204F 
 860      5200
 861 0052 0000     		.align	2
 862              	.LC10:
 863 0054 3C323E20 		.ascii	"<2> players?\000"
 863      706C6179 
 863      6572733F 
 863      00
 864 0061 000000   		.align	2
 865              	.LC11:
 866 0064 526F756E 		.ascii	"Round %d\000"
 866      64202564 
 866      00
 867 006d 000000   		.align	2
 868              	.LC12:
 869 0070 53696D6F 		.ascii	"Simon's Turn!\000"
 869      6E277320 
 869      5475726E 
 869      2100
 870 007e 0000     		.align	2
 871              	.LC13:
 872 0080 506C6179 		.ascii	"Player's Turn!\000"
 872      65722773 
 872      20547572 
 872      6E2100
 873 008f 00       		.align	2
 874              	.LC14:
 875 0090 53636F72 		.ascii	"Score: %d\000"
 875      653A2025 
 875      6400
 876 009a 0000     		.align	2
 877              	.LC15:
 878 009c 506C6179 		.ascii	"Player 1's Turn\000"
 878      65722031 
 878      27732054 
 878      75726E00 
 879              		.align	2
 880              	.LC16:
 881 00ac 506C6179 		.ascii	"Player 2's Turn\000"
 881      65722032 
 881      27732054 
 881      75726E00 
 882              		.align	2
 883              	.LC17:
 884 00bc 47616D65 		.ascii	"Game Over!\000"
 884      204F7665 
 884      722100
 885 00c7 00       		.align	2
 886              	.LC18:
 887 00c8 50312053 		.ascii	"P1 Score: %d\000"
 887      636F7265 
 887      3A202564 
ARM GAS  C:\Users\elhyd\AppData\Local\Temp\ccbljKy4.s 			page 28


 887      00
 888 00d5 000000   		.align	2
 889              	.LC19:
 890 00d8 506C6179 		.ascii	"Player 1 Wins\000"
 890      65722031 
 890      2057696E 
 890      7300
 891 00e6 0000     		.align	2
 892              	.LC20:
 893 00e8 506C6179 		.ascii	"Player 2 Wins\000"
 893      65722032 
 893      2057696E 
 893      7300
 894 00f6 0000     		.align	2
 895              	.LC21:
 896 00f8 506C6179 		.ascii	"Players Tied\000"
 896      65727320 
 896      54696564 
 896      00
 897 0105 000000   		.align	2
 898              	.LC22:
 899 0108 50322053 		.ascii	"P2 Score: %d\000"
 899      636F7265 
 899      3A202564 
 899      00
 900 0115 000000   		.align	2
 901              	.LC23:
 902 0118 506C6179 		.ascii	"Play Again?\000"
 902      20416761 
 902      696E3F00 
 903              		.align	2
 904              	.LC24:
 905 0124 50757368 		.ascii	"Push to Start\000"
 905      20746F20 
 905      53746172 
 905      7400
 906              		.section	.text.Game_Run,"ax",%progbits
 907              		.align	1
 908              		.global	Game_Run
 909              		.syntax unified
 910              		.thumb
 911              		.thumb_func
 913              	Game_Run:
 914              	.LVL72:
 915              	.LFB1110:
  87:Core/Src/SimonGame.c ****     static int directionDelay = 0;
 916              		.loc 1 87 1 is_stmt 1 view -0
 917              		.cfi_startproc
 918              		@ args = 0, pretend = 0, frame = 8
 919              		@ frame_needed = 0, uses_anonymous_args = 0
  87:Core/Src/SimonGame.c ****     static int directionDelay = 0;
 920              		.loc 1 87 1 is_stmt 0 view .LVU217
 921 0000 F0B5     		push	{r4, r5, r6, r7, lr}
 922              		.cfi_def_cfa_offset 20
 923              		.cfi_offset 4, -20
 924              		.cfi_offset 5, -16
 925              		.cfi_offset 6, -12
ARM GAS  C:\Users\elhyd\AppData\Local\Temp\ccbljKy4.s 			page 29


 926              		.cfi_offset 7, -8
 927              		.cfi_offset 14, -4
 928 0002 83B0     		sub	sp, sp, #12
 929              		.cfi_def_cfa_offset 32
 930 0004 0446     		mov	r4, r0
 931 0006 0D46     		mov	r5, r1
  88:Core/Src/SimonGame.c ****     static JoyStickDirection direction = JOY_IDLE, lastDirection = JOY_IDLE;
 932              		.loc 1 88 5 is_stmt 1 view .LVU218
  89:Core/Src/SimonGame.c ****     
 933              		.loc 1 89 5 view .LVU219
  92:Core/Src/SimonGame.c ****     {
 934              		.loc 1 92 5 view .LVU220
  92:Core/Src/SimonGame.c ****     {
 935              		.loc 1 92 16 is_stmt 0 view .LVU221
 936 0008 0378     		ldrb	r3, [r0]	@ zero_extendqisi2
  92:Core/Src/SimonGame.c ****     {
 937              		.loc 1 92 5 view .LVU222
 938 000a 092B     		cmp	r3, #9
 939 000c 00F26982 		bhi	.L66
 940 0010 DFE813F0 		tbh	[pc, r3, lsl #1]
 941              	.L68:
 942 0014 0A00     		.2byte	(.L77-.L68)/2
 943 0016 4000     		.2byte	(.L76-.L68)/2
 944 0018 5100     		.2byte	(.L75-.L68)/2
 945 001a 6900     		.2byte	(.L74-.L68)/2
 946 001c EB00     		.2byte	(.L73-.L68)/2
 947 001e 5C01     		.2byte	(.L72-.L68)/2
 948 0020 D401     		.2byte	(.L71-.L68)/2
 949 0022 3702     		.2byte	(.L70-.L68)/2
 950 0024 5202     		.2byte	(.L69-.L68)/2
 951 0026 5E02     		.2byte	(.L67-.L68)/2
 952              		.p2align 1
 953              	.L77:
  97:Core/Src/SimonGame.c ****         snprintf(lineOne, sizeof(lineOne), "Welcome to the");
 954              		.loc 1 97 9 is_stmt 1 view .LVU223
 955 0028 FFF7FEFF 		bl	LCD_Cls
 956              	.LVL73:
  98:Core/Src/SimonGame.c ****         snprintf(lineTwo, sizeof(lineTwo), "Simon Game");
 957              		.loc 1 98 9 view .LVU224
 958 002c 954E     		ldr	r6, .L103
 959 002e 964B     		ldr	r3, .L103+4
 960 0030 3546     		mov	r5, r6
 961              	.LVL74:
  98:Core/Src/SimonGame.c ****         snprintf(lineTwo, sizeof(lineTwo), "Simon Game");
 962              		.loc 1 98 9 is_stmt 0 view .LVU225
 963 0032 0FCB     		ldm	r3, {r0, r1, r2, r3}
 964 0034 07C5     		stmia	r5!, {r0, r1, r2}
 965 0036 2B80     		strh	r3, [r5]	@ movhi
 966 0038 1B0C     		lsrs	r3, r3, #16
 967 003a 05F8023F 		strb	r3, [r5, #2]!
  99:Core/Src/SimonGame.c ****         displayOnLCD(lineOne, lineTwo);
 968              		.loc 1 99 9 is_stmt 1 view .LVU226
 969 003e 934F     		ldr	r7, .L103+8
 970 0040 934A     		ldr	r2, .L103+12
 971 0042 3B46     		mov	r3, r7
 972 0044 07CA     		ldm	r2, {r0, r1, r2}
 973 0046 03C3     		stmia	r3!, {r0, r1}
ARM GAS  C:\Users\elhyd\AppData\Local\Temp\ccbljKy4.s 			page 30


 974 0048 23F8022B 		strh	r2, [r3], #2	@ movhi
 975 004c 120C     		lsrs	r2, r2, #16
 976 004e 1A70     		strb	r2, [r3]
 100:Core/Src/SimonGame.c ****         HAL_Delay(2000);  
 977              		.loc 1 100 9 view .LVU227
 978 0050 3946     		mov	r1, r7
 979 0052 3046     		mov	r0, r6
 980 0054 FFF7FEFF 		bl	displayOnLCD
 981              	.LVL75:
 101:Core/Src/SimonGame.c ****         
 982              		.loc 1 101 9 view .LVU228
 983 0058 4FF4FA60 		mov	r0, #2000
 984 005c FFF7FEFF 		bl	HAL_Delay
 985              	.LVL76:
 103:Core/Src/SimonGame.c ****         snprintf(lineOne, sizeof(lineOne), "Push To Start!");
 986              		.loc 1 103 9 view .LVU229
 987 0060 FFF7FEFF 		bl	LCD_Cls
 988              	.LVL77:
 104:Core/Src/SimonGame.c ****         snprintf(lineTwo, sizeof(lineTwo), "");
 989              		.loc 1 104 9 view .LVU230
 990 0064 8B4B     		ldr	r3, .L103+16
 991 0066 B446     		mov	ip, r6
 992 0068 0FCB     		ldm	r3, {r0, r1, r2, r3}
 993 006a ACE80700 		stmia	ip!, {r0, r1, r2}
 994 006e ACF80030 		strh	r3, [ip]	@ movhi
 995 0072 1B0C     		lsrs	r3, r3, #16
 996 0074 2B70     		strb	r3, [r5]
 105:Core/Src/SimonGame.c ****         displayOnLCD(lineOne, lineTwo);
 997              		.loc 1 105 9 view .LVU231
 998 0076 0025     		movs	r5, #0
 999 0078 3D70     		strb	r5, [r7]
 106:Core/Src/SimonGame.c ****         game->state = START;
 1000              		.loc 1 106 9 view .LVU232
 1001 007a 3946     		mov	r1, r7
 1002 007c 3046     		mov	r0, r6
 1003 007e FFF7FEFF 		bl	displayOnLCD
 1004              	.LVL78:
 107:Core/Src/SimonGame.c **** 
 1005              		.loc 1 107 9 view .LVU233
 107:Core/Src/SimonGame.c **** 
 1006              		.loc 1 107 21 is_stmt 0 view .LVU234
 1007 0082 0123     		movs	r3, #1
 1008 0084 2370     		strb	r3, [r4]
 109:Core/Src/SimonGame.c ****         __HAL_TIM_SET_COUNTER(&htim2, 0);
 1009              		.loc 1 109 9 is_stmt 1 view .LVU235
 109:Core/Src/SimonGame.c ****         __HAL_TIM_SET_COUNTER(&htim2, 0);
 1010              		.loc 1 109 21 is_stmt 0 view .LVU236
 1011 0086 844B     		ldr	r3, .L103+20
 1012 0088 1D60     		str	r5, [r3]
 110:Core/Src/SimonGame.c ****         break;
 1013              		.loc 1 110 9 is_stmt 1 view .LVU237
 1014 008a 844B     		ldr	r3, .L103+24
 1015 008c 1B68     		ldr	r3, [r3]
 1016 008e 5D62     		str	r5, [r3, #36]
 111:Core/Src/SimonGame.c **** 
 1017              		.loc 1 111 9 view .LVU238
 1018              	.L65:
ARM GAS  C:\Users\elhyd\AppData\Local\Temp\ccbljKy4.s 			page 31


 345:Core/Src/SimonGame.c **** 
 1019              		.loc 1 345 1 is_stmt 0 view .LVU239
 1020 0090 03B0     		add	sp, sp, #12
 1021              		.cfi_remember_state
 1022              		.cfi_def_cfa_offset 20
 1023              		@ sp needed
 1024 0092 F0BD     		pop	{r4, r5, r6, r7, pc}
 1025              	.LVL79:
 1026              	.L76:
 1027              		.cfi_restore_state
 116:Core/Src/SimonGame.c ****         {
 1028              		.loc 1 116 28 is_stmt 1 view .LVU240
 1029 0094 804B     		ldr	r3, .L103+20
 1030 0096 1B68     		ldr	r3, [r3]
 1031 0098 632B     		cmp	r3, #99
 1032 009a 06DC     		bgt	.L79
 118:Core/Src/SimonGame.c ****           {  
 1033              		.loc 1 118 11 view .LVU241
 118:Core/Src/SimonGame.c ****           {  
 1034              		.loc 1 118 15 is_stmt 0 view .LVU242
 1035 009c 2846     		mov	r0, r5
 1036 009e FFF7FEFF 		bl	Joystick_Pressed
 1037              	.LVL80:
 118:Core/Src/SimonGame.c ****           {  
 1038              		.loc 1 118 14 discriminator 1 view .LVU243
 1039 00a2 0028     		cmp	r0, #0
 1040 00a4 F6D0     		beq	.L76
 120:Core/Src/SimonGame.c ****             break; 
 1041              		.loc 1 120 13 is_stmt 1 view .LVU244
 120:Core/Src/SimonGame.c ****             break; 
 1042              		.loc 1 120 25 is_stmt 0 view .LVU245
 1043 00a6 0223     		movs	r3, #2
 1044 00a8 2370     		strb	r3, [r4]
 121:Core/Src/SimonGame.c ****           }  
 1045              		.loc 1 121 13 is_stmt 1 view .LVU246
 1046              	.L79:
 125:Core/Src/SimonGame.c ****         { game->state = SLEEP; }
 1047              		.loc 1 125 9 view .LVU247
 125:Core/Src/SimonGame.c ****         { game->state = SLEEP; }
 1048              		.loc 1 125 17 is_stmt 0 view .LVU248
 1049 00aa 2378     		ldrb	r3, [r4]	@ zero_extendqisi2
 125:Core/Src/SimonGame.c ****         { game->state = SLEEP; }
 1050              		.loc 1 125 12 view .LVU249
 1051 00ac 022B     		cmp	r3, #2
 1052 00ae EFD0     		beq	.L65
 126:Core/Src/SimonGame.c ****         break;
 1053              		.loc 1 126 11 is_stmt 1 view .LVU250
 126:Core/Src/SimonGame.c ****         break;
 1054              		.loc 1 126 23 is_stmt 0 view .LVU251
 1055 00b0 0823     		movs	r3, #8
 1056 00b2 2370     		strb	r3, [r4]
 1057 00b4 ECE7     		b	.L65
 1058              	.LVL81:
 1059              	.L75:
 131:Core/Src/SimonGame.c ****         snprintf(lineOne, sizeof(lineOne), "1 player OR");
 1060              		.loc 1 131 9 is_stmt 1 view .LVU252
 1061 00b6 FFF7FEFF 		bl	LCD_Cls
ARM GAS  C:\Users\elhyd\AppData\Local\Temp\ccbljKy4.s 			page 32


 1062              	.LVL82:
 132:Core/Src/SimonGame.c ****         snprintf(lineTwo, sizeof(lineTwo), "2 players?");
 1063              		.loc 1 132 9 view .LVU253
 1064 00ba 724D     		ldr	r5, .L103
 1065              	.LVL83:
 132:Core/Src/SimonGame.c ****         snprintf(lineTwo, sizeof(lineTwo), "2 players?");
 1066              		.loc 1 132 9 is_stmt 0 view .LVU254
 1067 00bc 784B     		ldr	r3, .L103+28
 1068 00be 93E80700 		ldm	r3, {r0, r1, r2}
 1069 00c2 85E80700 		stm	r5, {r0, r1, r2}
 133:Core/Src/SimonGame.c ****         displayOnLCD(lineOne, lineTwo);
 1070              		.loc 1 133 9 is_stmt 1 view .LVU255
 1071 00c6 714E     		ldr	r6, .L103+8
 1072 00c8 764A     		ldr	r2, .L103+32
 1073 00ca 3346     		mov	r3, r6
 1074 00cc 07CA     		ldm	r2, {r0, r1, r2}
 1075 00ce 03C3     		stmia	r3!, {r0, r1}
 1076 00d0 23F8022B 		strh	r2, [r3], #2	@ movhi
 1077 00d4 120C     		lsrs	r2, r2, #16
 1078 00d6 1A70     		strb	r2, [r3]
 134:Core/Src/SimonGame.c ****         game->state = PLAYER_SELECT;
 1079              		.loc 1 134 9 view .LVU256
 1080 00d8 3146     		mov	r1, r6
 1081 00da 2846     		mov	r0, r5
 1082 00dc FFF7FEFF 		bl	displayOnLCD
 1083              	.LVL84:
 135:Core/Src/SimonGame.c ****         break;
 1084              		.loc 1 135 9 view .LVU257
 135:Core/Src/SimonGame.c ****         break;
 1085              		.loc 1 135 21 is_stmt 0 view .LVU258
 1086 00e0 0323     		movs	r3, #3
 1087 00e2 2370     		strb	r3, [r4]
 136:Core/Src/SimonGame.c **** 
 1088              		.loc 1 136 9 is_stmt 1 view .LVU259
 1089 00e4 D4E7     		b	.L65
 1090              	.LVL85:
 1091              	.L74:
 141:Core/Src/SimonGame.c **** 
 1092              		.loc 1 141 9 view .LVU260
 141:Core/Src/SimonGame.c **** 
 1093              		.loc 1 141 21 is_stmt 0 view .LVU261
 1094 00e6 0846     		mov	r0, r1
 1095              	.LVL86:
 141:Core/Src/SimonGame.c **** 
 1096              		.loc 1 141 21 view .LVU262
 1097 00e8 FFF7FEFF 		bl	Joystick_GetDirection
 1098              	.LVL87:
 141:Core/Src/SimonGame.c **** 
 1099              		.loc 1 141 19 discriminator 1 view .LVU263
 1100 00ec 6E4B     		ldr	r3, .L103+36
 1101 00ee 1870     		strb	r0, [r3]
 145:Core/Src/SimonGame.c ****         {
 1102              		.loc 1 145 9 is_stmt 1 view .LVU264
 145:Core/Src/SimonGame.c ****         {
 1103              		.loc 1 145 27 is_stmt 0 view .LVU265
 1104 00f0 6E4B     		ldr	r3, .L103+40
 1105 00f2 1B68     		ldr	r3, [r3]
ARM GAS  C:\Users\elhyd\AppData\Local\Temp\ccbljKy4.s 			page 33


 145:Core/Src/SimonGame.c ****         {
 1106              		.loc 1 145 11 view .LVU266
 1107 00f4 022B     		cmp	r3, #2
 1108 00f6 03DC     		bgt	.L81
 145:Core/Src/SimonGame.c ****         {
 1109              		.loc 1 145 48 discriminator 1 view .LVU267
 1110 00f8 6D4A     		ldr	r2, .L103+44
 1111 00fa 1278     		ldrb	r2, [r2]	@ zero_extendqisi2
 145:Core/Src/SimonGame.c ****         {
 1112              		.loc 1 145 31 discriminator 1 view .LVU268
 1113 00fc 012A     		cmp	r2, #1
 1114 00fe 29D0     		beq	.L96
 1115              	.L81:
 151:Core/Src/SimonGame.c **** 
 1116              		.loc 1 151 11 is_stmt 1 view .LVU269
 151:Core/Src/SimonGame.c **** 
 1117              		.loc 1 151 26 is_stmt 0 view .LVU270
 1118 0100 6A4B     		ldr	r3, .L103+40
 1119 0102 0022     		movs	r2, #0
 1120 0104 1A60     		str	r2, [r3]
 1121              	.L82:
 154:Core/Src/SimonGame.c ****         {
 1122              		.loc 1 154 9 is_stmt 1 view .LVU271
 154:Core/Src/SimonGame.c ****         {
 1123              		.loc 1 154 23 is_stmt 0 view .LVU272
 1124 0106 684B     		ldr	r3, .L103+36
 1125 0108 1B78     		ldrb	r3, [r3]	@ zero_extendqisi2
 154:Core/Src/SimonGame.c ****         {
 1126              		.loc 1 154 12 view .LVU273
 1127 010a 5BB1     		cbz	r3, .L83
 154:Core/Src/SimonGame.c ****         {
 1128              		.loc 1 154 48 discriminator 1 view .LVU274
 1129 010c 684A     		ldr	r2, .L103+44
 1130 010e 1278     		ldrb	r2, [r2]	@ zero_extendqisi2
 154:Core/Src/SimonGame.c ****         {
 1131              		.loc 1 154 35 discriminator 1 view .LVU275
 1132 0110 9342     		cmp	r3, r2
 1133 0112 07D0     		beq	.L83
 157:Core/Src/SimonGame.c ****           {
 1134              		.loc 1 157 11 is_stmt 1 view .LVU276
 157:Core/Src/SimonGame.c ****           {
 1135              		.loc 1 157 14 is_stmt 0 view .LVU277
 1136 0114 012B     		cmp	r3, #1
 1137 0116 26D0     		beq	.L97
 166:Core/Src/SimonGame.c ****           {
 1138              		.loc 1 166 16 is_stmt 1 view .LVU278
 166:Core/Src/SimonGame.c ****           {
 1139              		.loc 1 166 19 is_stmt 0 view .LVU279
 1140 0118 022B     		cmp	r3, #2
 1141 011a 3ED0     		beq	.L98
 1142              	.L85:
 175:Core/Src/SimonGame.c ****         }   
 1143              		.loc 1 175 11 is_stmt 1 view .LVU280
 175:Core/Src/SimonGame.c ****         }   
 1144              		.loc 1 175 25 is_stmt 0 view .LVU281
 1145 011c 624B     		ldr	r3, .L103+36
 1146 011e 1A78     		ldrb	r2, [r3]	@ zero_extendqisi2
ARM GAS  C:\Users\elhyd\AppData\Local\Temp\ccbljKy4.s 			page 34


 1147 0120 634B     		ldr	r3, .L103+44
 1148 0122 1A70     		strb	r2, [r3]
 1149              	.L83:
 180:Core/Src/SimonGame.c ****         {
 1150              		.loc 1 180 9 is_stmt 1 view .LVU282
 180:Core/Src/SimonGame.c ****         {
 1151              		.loc 1 180 13 is_stmt 0 view .LVU283
 1152 0124 2846     		mov	r0, r5
 1153 0126 FFF7FEFF 		bl	Joystick_Pressed
 1154              	.LVL88:
 180:Core/Src/SimonGame.c ****         {
 1155              		.loc 1 180 12 discriminator 1 view .LVU284
 1156 012a 0028     		cmp	r0, #0
 1157 012c B0D0     		beq	.L65
 182:Core/Src/SimonGame.c ****           {
 1158              		.loc 1 182 11 is_stmt 1 view .LVU285
 182:Core/Src/SimonGame.c ****           {
 1159              		.loc 1 182 25 is_stmt 0 view .LVU286
 1160 012e 2379     		ldrb	r3, [r4, #4]	@ zero_extendqisi2
 182:Core/Src/SimonGame.c ****           {
 1161              		.loc 1 182 14 view .LVU287
 1162 0130 012B     		cmp	r3, #1
 1163 0132 48D0     		beq	.L99
 193:Core/Src/SimonGame.c **** 
 1164              		.loc 1 193 13 is_stmt 1 view .LVU288
 193:Core/Src/SimonGame.c **** 
 1165              		.loc 1 193 25 is_stmt 0 view .LVU289
 1166 0134 0523     		movs	r3, #5
 1167 0136 2370     		strb	r3, [r4]
 1168              	.L87:
 195:Core/Src/SimonGame.c ****           game->info.sequenceLength = 1;
 1169              		.loc 1 195 11 is_stmt 1 view .LVU290
 195:Core/Src/SimonGame.c ****           game->info.sequenceLength = 1;
 1170              		.loc 1 195 28 is_stmt 0 view .LVU291
 1171 0138 0123     		movs	r3, #1
 1172 013a 84F87130 		strb	r3, [r4, #113]
 196:Core/Src/SimonGame.c ****           game->info.playerScores[0] = 0;
 1173              		.loc 1 196 11 is_stmt 1 view .LVU292
 196:Core/Src/SimonGame.c ****           game->info.playerScores[0] = 0;
 1174              		.loc 1 196 37 is_stmt 0 view .LVU293
 1175 013e 84F87030 		strb	r3, [r4, #112]
 197:Core/Src/SimonGame.c ****           game->info.playerScores[1] = 0;
 1176              		.loc 1 197 11 is_stmt 1 view .LVU294
 197:Core/Src/SimonGame.c ****           game->info.playerScores[1] = 0;
 1177              		.loc 1 197 38 is_stmt 0 view .LVU295
 1178 0142 0023     		movs	r3, #0
 1179 0144 84F83A31 		strb	r3, [r4, #314]
 198:Core/Src/SimonGame.c ****           game->info.sequenceSpeed = 1000; // Initial speed 1 s
 1180              		.loc 1 198 11 is_stmt 1 view .LVU296
 198:Core/Src/SimonGame.c ****           game->info.sequenceSpeed = 1000; // Initial speed 1 s
 1181              		.loc 1 198 38 is_stmt 0 view .LVU297
 1182 0148 84F83B31 		strb	r3, [r4, #315]
 199:Core/Src/SimonGame.c ****         }
 1183              		.loc 1 199 11 is_stmt 1 view .LVU298
 199:Core/Src/SimonGame.c ****         }
 1184              		.loc 1 199 36 is_stmt 0 view .LVU299
 1185 014c 4FF47A73 		mov	r3, #1000
ARM GAS  C:\Users\elhyd\AppData\Local\Temp\ccbljKy4.s 			page 35


 1186 0150 A360     		str	r3, [r4, #8]
 1187 0152 9DE7     		b	.L65
 1188              	.L96:
 145:Core/Src/SimonGame.c ****         {
 1189              		.loc 1 145 58 discriminator 2 view .LVU300
 1190 0154 0028     		cmp	r0, #0
 1191 0156 D3D1     		bne	.L81
 147:Core/Src/SimonGame.c ****           directionDelay++;
 1192              		.loc 1 147 11 is_stmt 1 view .LVU301
 147:Core/Src/SimonGame.c ****           directionDelay++;
 1193              		.loc 1 147 21 is_stmt 0 view .LVU302
 1194 0158 534A     		ldr	r2, .L103+36
 1195 015a 0121     		movs	r1, #1
 1196 015c 1170     		strb	r1, [r2]
 148:Core/Src/SimonGame.c ****         }
 1197              		.loc 1 148 11 is_stmt 1 view .LVU303
 148:Core/Src/SimonGame.c ****         }
 1198              		.loc 1 148 25 is_stmt 0 view .LVU304
 1199 015e 0B44     		add	r3, r3, r1
 1200 0160 524A     		ldr	r2, .L103+40
 1201 0162 1360     		str	r3, [r2]
 1202 0164 CFE7     		b	.L82
 1203              	.L97:
 159:Core/Src/SimonGame.c ****             snprintf(lineOne, sizeof(lineOne), "<1> player OR");
 1204              		.loc 1 159 13 is_stmt 1 view .LVU305
 1205 0166 FFF7FEFF 		bl	LCD_Cls
 1206              	.LVL89:
 160:Core/Src/SimonGame.c ****             snprintf(lineTwo, sizeof(lineTwo), "2 players?");
 1207              		.loc 1 160 13 view .LVU306
 1208 016a 464F     		ldr	r7, .L103
 1209 016c 514B     		ldr	r3, .L103+48
 1210 016e 3E46     		mov	r6, r7
 1211 0170 0FCB     		ldm	r3, {r0, r1, r2, r3}
 1212 0172 07C6     		stmia	r6!, {r0, r1, r2}
 1213 0174 3380     		strh	r3, [r6]	@ movhi
 161:Core/Src/SimonGame.c ****             displayOnLCD(lineOne, lineTwo);
 1214              		.loc 1 161 13 view .LVU307
 1215 0176 454E     		ldr	r6, .L103+8
 1216 0178 4A4A     		ldr	r2, .L103+32
 1217 017a 3346     		mov	r3, r6
 1218 017c 07CA     		ldm	r2, {r0, r1, r2}
 1219 017e 03C3     		stmia	r3!, {r0, r1}
 1220 0180 23F8022B 		strh	r2, [r3], #2	@ movhi
 1221 0184 120C     		lsrs	r2, r2, #16
 1222 0186 1A70     		strb	r2, [r3]
 162:Core/Src/SimonGame.c ****             game->info.numPlayers = 1;
 1223              		.loc 1 162 13 view .LVU308
 1224 0188 3146     		mov	r1, r6
 1225 018a 3846     		mov	r0, r7
 1226 018c FFF7FEFF 		bl	displayOnLCD
 1227              	.LVL90:
 163:Core/Src/SimonGame.c ****             direction = JOY_UP;
 1228              		.loc 1 163 13 view .LVU309
 163:Core/Src/SimonGame.c ****             direction = JOY_UP;
 1229              		.loc 1 163 35 is_stmt 0 view .LVU310
 1230 0190 0123     		movs	r3, #1
 1231 0192 2371     		strb	r3, [r4, #4]
ARM GAS  C:\Users\elhyd\AppData\Local\Temp\ccbljKy4.s 			page 36


 164:Core/Src/SimonGame.c ****           }    
 1232              		.loc 1 164 13 is_stmt 1 view .LVU311
 164:Core/Src/SimonGame.c ****           }    
 1233              		.loc 1 164 23 is_stmt 0 view .LVU312
 1234 0194 444A     		ldr	r2, .L103+36
 1235 0196 1370     		strb	r3, [r2]
 1236 0198 C0E7     		b	.L85
 1237              	.L98:
 168:Core/Src/SimonGame.c ****             snprintf(lineOne, sizeof(lineOne), "1 player OR");
 1238              		.loc 1 168 13 is_stmt 1 view .LVU313
 1239 019a FFF7FEFF 		bl	LCD_Cls
 1240              	.LVL91:
 169:Core/Src/SimonGame.c ****             snprintf(lineTwo, sizeof(lineTwo), "<2> players?");
 1241              		.loc 1 169 13 view .LVU314
 1242 019e 394F     		ldr	r7, .L103
 1243 01a0 3F4B     		ldr	r3, .L103+28
 1244 01a2 93E80700 		ldm	r3, {r0, r1, r2}
 1245 01a6 87E80700 		stm	r7, {r0, r1, r2}
 170:Core/Src/SimonGame.c ****             displayOnLCD(lineOne, lineTwo);
 1246              		.loc 1 170 13 view .LVU315
 1247 01aa DFF8E0C0 		ldr	ip, .L103+8
 1248 01ae 424B     		ldr	r3, .L103+52
 1249 01b0 6646     		mov	r6, ip
 1250 01b2 0FCB     		ldm	r3, {r0, r1, r2, r3}
 1251 01b4 07C6     		stmia	r6!, {r0, r1, r2}
 1252 01b6 3370     		strb	r3, [r6]
 171:Core/Src/SimonGame.c ****             game->info.numPlayers = 2;
 1253              		.loc 1 171 13 view .LVU316
 1254 01b8 6146     		mov	r1, ip
 1255 01ba 3846     		mov	r0, r7
 1256 01bc FFF7FEFF 		bl	displayOnLCD
 1257              	.LVL92:
 172:Core/Src/SimonGame.c ****           }
 1258              		.loc 1 172 13 view .LVU317
 172:Core/Src/SimonGame.c ****           }
 1259              		.loc 1 172 35 is_stmt 0 view .LVU318
 1260 01c0 0223     		movs	r3, #2
 1261 01c2 2371     		strb	r3, [r4, #4]
 1262 01c4 AAE7     		b	.L85
 1263              	.L99:
 1264              	.LBB9:
 184:Core/Src/SimonGame.c ****             game->info.currentPlayer = 1;
 1265              		.loc 1 184 13 is_stmt 1 view .LVU319
 184:Core/Src/SimonGame.c ****             game->info.currentPlayer = 1;
 1266              		.loc 1 184 25 is_stmt 0 view .LVU320
 1267 01c6 0423     		movs	r3, #4
 1268 01c8 2370     		strb	r3, [r4]
 185:Core/Src/SimonGame.c **** 
 1269              		.loc 1 185 13 is_stmt 1 view .LVU321
 185:Core/Src/SimonGame.c **** 
 1270              		.loc 1 185 38 is_stmt 0 view .LVU322
 1271 01ca 0123     		movs	r3, #1
 1272 01cc 6371     		strb	r3, [r4, #5]
 188:Core/Src/SimonGame.c ****             Joystick_ReadXY(joystick, seed);
 1273              		.loc 1 188 13 is_stmt 1 view .LVU323
 188:Core/Src/SimonGame.c ****             Joystick_ReadXY(joystick, seed);
 1274              		.loc 1 188 22 is_stmt 0 view .LVU324
ARM GAS  C:\Users\elhyd\AppData\Local\Temp\ccbljKy4.s 			page 37


 1275 01ce 0023     		movs	r3, #0
 1276 01d0 0193     		str	r3, [sp, #4]
 189:Core/Src/SimonGame.c ****             srand(seed[0] ^ seed[1]);
 1277              		.loc 1 189 13 is_stmt 1 view .LVU325
 1278 01d2 01A9     		add	r1, sp, #4
 1279 01d4 2846     		mov	r0, r5
 1280 01d6 FFF7FEFF 		bl	Joystick_ReadXY
 1281              	.LVL93:
 190:Core/Src/SimonGame.c ****           }
 1282              		.loc 1 190 13 view .LVU326
 190:Core/Src/SimonGame.c ****           }
 1283              		.loc 1 190 23 is_stmt 0 view .LVU327
 1284 01da BDF80400 		ldrh	r0, [sp, #4]
 190:Core/Src/SimonGame.c ****           }
 1285              		.loc 1 190 33 view .LVU328
 1286 01de BDF80630 		ldrh	r3, [sp, #6]
 190:Core/Src/SimonGame.c ****           }
 1287              		.loc 1 190 13 view .LVU329
 1288 01e2 5840     		eors	r0, r0, r3
 1289 01e4 FFF7FEFF 		bl	srand
 1290              	.LVL94:
 1291              	.LBE9:
 1292 01e8 A6E7     		b	.L87
 1293              	.LVL95:
 1294              	.L73:
 208:Core/Src/SimonGame.c ****         snprintf(lineOne, sizeof(lineOne), "Round %d", game->info.round);
 1295              		.loc 1 208 9 is_stmt 1 view .LVU330
 1296 01ea FFF7FEFF 		bl	LCD_Cls
 1297              	.LVL96:
 209:Core/Src/SimonGame.c ****         snprintf(lineTwo, sizeof(lineTwo), "Simon's Turn!");
 1298              		.loc 1 209 9 view .LVU331
 1299 01ee 254E     		ldr	r6, .L103
 1300 01f0 94F87130 		ldrb	r3, [r4, #113]	@ zero_extendqisi2
 1301 01f4 314A     		ldr	r2, .L103+56
 1302 01f6 1121     		movs	r1, #17
 1303 01f8 3046     		mov	r0, r6
 1304 01fa FFF7FEFF 		bl	snprintf
 1305              	.LVL97:
 210:Core/Src/SimonGame.c ****         displayOnLCD(lineOne, lineTwo);
 1306              		.loc 1 210 9 view .LVU332
 1307 01fe 234F     		ldr	r7, .L103+8
 1308 0200 2F4B     		ldr	r3, .L103+60
 1309 0202 3D46     		mov	r5, r7
 1310              	.LVL98:
 210:Core/Src/SimonGame.c ****         displayOnLCD(lineOne, lineTwo);
 1311              		.loc 1 210 9 is_stmt 0 view .LVU333
 1312 0204 0FCB     		ldm	r3, {r0, r1, r2, r3}
 1313 0206 07C5     		stmia	r5!, {r0, r1, r2}
 1314 0208 2B80     		strh	r3, [r5]	@ movhi
 211:Core/Src/SimonGame.c ****         HAL_Delay(500);  //wait 1/2 second
 1315              		.loc 1 211 9 is_stmt 1 view .LVU334
 1316 020a 3946     		mov	r1, r7
 1317 020c 3046     		mov	r0, r6
 1318 020e FFF7FEFF 		bl	displayOnLCD
 1319              	.LVL99:
 212:Core/Src/SimonGame.c ****         computerTurn(game);
 1320              		.loc 1 212 9 view .LVU335
ARM GAS  C:\Users\elhyd\AppData\Local\Temp\ccbljKy4.s 			page 38


 1321 0212 4FF4FA70 		mov	r0, #500
 1322 0216 FFF7FEFF 		bl	HAL_Delay
 1323              	.LVL100:
 213:Core/Src/SimonGame.c **** 
 1324              		.loc 1 213 9 view .LVU336
 1325 021a 2046     		mov	r0, r4
 1326 021c FFF7FEFF 		bl	computerTurn
 1327              	.LVL101:
 215:Core/Src/SimonGame.c ****         snprintf(lineOne, sizeof(lineOne), "Player's Turn!");
 1328              		.loc 1 215 9 view .LVU337
 1329 0220 FFF7FEFF 		bl	LCD_Cls
 1330              	.LVL102:
 216:Core/Src/SimonGame.c ****         snprintf(lineTwo, sizeof(lineTwo), "Score: %d", game->info.playerScores[0]);
 1331              		.loc 1 216 9 view .LVU338
 1332 0224 274B     		ldr	r3, .L103+64
 1333 0226 3546     		mov	r5, r6
 1334 0228 0FCB     		ldm	r3, {r0, r1, r2, r3}
 1335 022a 07C5     		stmia	r5!, {r0, r1, r2}
 1336 022c 25F8023B 		strh	r3, [r5], #2	@ movhi
 1337 0230 1B0C     		lsrs	r3, r3, #16
 1338 0232 2B70     		strb	r3, [r5]
 217:Core/Src/SimonGame.c ****         displayOnLCD(lineOne, lineTwo);
 1339              		.loc 1 217 9 view .LVU339
 1340 0234 94F83A31 		ldrb	r3, [r4, #314]	@ zero_extendqisi2
 1341 0238 234A     		ldr	r2, .L103+68
 1342 023a 1121     		movs	r1, #17
 1343 023c 3846     		mov	r0, r7
 1344 023e FFF7FEFF 		bl	snprintf
 1345              	.LVL103:
 218:Core/Src/SimonGame.c ****         HAL_Delay(500);  //wait 1/2 second
 1346              		.loc 1 218 9 view .LVU340
 1347 0242 3946     		mov	r1, r7
 1348 0244 3046     		mov	r0, r6
 1349 0246 FFF7FEFF 		bl	displayOnLCD
 1350              	.LVL104:
 219:Core/Src/SimonGame.c ****         playerTurn(game);
 1351              		.loc 1 219 9 view .LVU341
 1352 024a 4FF4FA70 		mov	r0, #500
 1353 024e FFF7FEFF 		bl	HAL_Delay
 1354              	.LVL105:
 220:Core/Src/SimonGame.c **** 
 1355              		.loc 1 220 9 view .LVU342
 1356 0252 2046     		mov	r0, r4
 1357 0254 FFF7FEFF 		bl	playerTurn
 1358              	.LVL106:
 222:Core/Src/SimonGame.c ****         {
 1359              		.loc 1 222 9 view .LVU343
 222:Core/Src/SimonGame.c ****         {
 1360              		.loc 1 222 16 is_stmt 0 view .LVU344
 1361 0258 2378     		ldrb	r3, [r4]	@ zero_extendqisi2
 222:Core/Src/SimonGame.c ****         {
 1362              		.loc 1 222 11 view .LVU345
 1363 025a 062B     		cmp	r3, #6
 1364 025c 3FF418AF 		beq	.L65
 224:Core/Src/SimonGame.c ****           if(game->state != GAME_RESULT)
 1365              		.loc 1 224 11 is_stmt 1 view .LVU346
 1366 0260 2046     		mov	r0, r4
ARM GAS  C:\Users\elhyd\AppData\Local\Temp\ccbljKy4.s 			page 39


 1367 0262 FFF7FEFF 		bl	compareSequences
 1368              	.LVL107:
 225:Core/Src/SimonGame.c ****           {
 1369              		.loc 1 225 11 view .LVU347
 225:Core/Src/SimonGame.c ****           {
 1370              		.loc 1 225 18 is_stmt 0 view .LVU348
 1371 0266 2378     		ldrb	r3, [r4]	@ zero_extendqisi2
 225:Core/Src/SimonGame.c ****           {
 1372              		.loc 1 225 13 view .LVU349
 1373 0268 062B     		cmp	r3, #6
 1374 026a 3FF411AF 		beq	.L65
 229:Core/Src/SimonGame.c ****             game->info.sequenceLength++;
 1375              		.loc 1 229 13 is_stmt 1 view .LVU350
 229:Core/Src/SimonGame.c ****             game->info.sequenceLength++;
 1376              		.loc 1 229 23 is_stmt 0 view .LVU351
 1377 026e 94F87130 		ldrb	r3, [r4, #113]	@ zero_extendqisi2
 229:Core/Src/SimonGame.c ****             game->info.sequenceLength++;
 1378              		.loc 1 229 29 view .LVU352
 1379 0272 0133     		adds	r3, r3, #1
 1380 0274 84F87130 		strb	r3, [r4, #113]
 230:Core/Src/SimonGame.c ****           }
 1381              		.loc 1 230 13 is_stmt 1 view .LVU353
 230:Core/Src/SimonGame.c ****           }
 1382              		.loc 1 230 23 is_stmt 0 view .LVU354
 1383 0278 94F87030 		ldrb	r3, [r4, #112]	@ zero_extendqisi2
 230:Core/Src/SimonGame.c ****           }
 1384              		.loc 1 230 38 view .LVU355
 1385 027c 0133     		adds	r3, r3, #1
 1386 027e 84F87030 		strb	r3, [r4, #112]
 1387 0282 05E7     		b	.L65
 1388              	.L104:
 1389              		.align	2
 1390              	.L103:
 1391 0284 00000000 		.word	lineOne
 1392 0288 00000000 		.word	.LC4
 1393 028c 00000000 		.word	lineTwo
 1394 0290 10000000 		.word	.LC5
 1395 0294 1C000000 		.word	.LC6
 1396 0298 00000000 		.word	buttonTimer
 1397 029c 00000000 		.word	htim2
 1398 02a0 2C000000 		.word	.LC7
 1399 02a4 38000000 		.word	.LC8
 1400 02a8 00000000 		.word	direction.3
 1401 02ac 00000000 		.word	directionDelay.2
 1402 02b0 00000000 		.word	lastDirection.1
 1403 02b4 44000000 		.word	.LC9
 1404 02b8 54000000 		.word	.LC10
 1405 02bc 64000000 		.word	.LC11
 1406 02c0 70000000 		.word	.LC12
 1407 02c4 80000000 		.word	.LC13
 1408 02c8 90000000 		.word	.LC14
 1409              	.LVL108:
 1410              	.L72:
 236:Core/Src/SimonGame.c ****         snprintf(lineOne, sizeof(lineOne), "Round %d", game->info.round);
 1411              		.loc 1 236 9 is_stmt 1 view .LVU356
 1412 02cc FFF7FEFF 		bl	LCD_Cls
 1413              	.LVL109:
ARM GAS  C:\Users\elhyd\AppData\Local\Temp\ccbljKy4.s 			page 40


 237:Core/Src/SimonGame.c ****         snprintf(lineTwo, sizeof(lineTwo), "");
 1414              		.loc 1 237 9 view .LVU357
 1415 02d0 854D     		ldr	r5, .L105
 1416              	.LVL110:
 237:Core/Src/SimonGame.c ****         snprintf(lineTwo, sizeof(lineTwo), "");
 1417              		.loc 1 237 9 is_stmt 0 view .LVU358
 1418 02d2 94F87130 		ldrb	r3, [r4, #113]	@ zero_extendqisi2
 1419 02d6 854A     		ldr	r2, .L105+4
 1420 02d8 1121     		movs	r1, #17
 1421 02da 2846     		mov	r0, r5
 1422 02dc FFF7FEFF 		bl	snprintf
 1423              	.LVL111:
 238:Core/Src/SimonGame.c ****         displayOnLCD(lineOne, lineTwo);
 1424              		.loc 1 238 9 is_stmt 1 view .LVU359
 1425 02e0 834E     		ldr	r6, .L105+8
 1426 02e2 0023     		movs	r3, #0
 1427 02e4 3370     		strb	r3, [r6]
 239:Core/Src/SimonGame.c ****         HAL_Delay(500);  //wait 1/2 second
 1428              		.loc 1 239 9 view .LVU360
 1429 02e6 3146     		mov	r1, r6
 1430 02e8 2846     		mov	r0, r5
 1431 02ea FFF7FEFF 		bl	displayOnLCD
 1432              	.LVL112:
 240:Core/Src/SimonGame.c ****         
 1433              		.loc 1 240 9 view .LVU361
 1434 02ee 4FF4FA70 		mov	r0, #500
 1435 02f2 FFF7FEFF 		bl	HAL_Delay
 1436              	.LVL113:
 242:Core/Src/SimonGame.c ****         snprintf(lineTwo, sizeof(lineTwo), "Score: %d", game->info.playerScores[0]);
 1437              		.loc 1 242 9 view .LVU362
 1438 02f6 7F4B     		ldr	r3, .L105+12
 1439 02f8 0FCB     		ldm	r3, {r0, r1, r2, r3}
 1440 02fa 85E80F00 		stm	r5, {r0, r1, r2, r3}
 243:Core/Src/SimonGame.c ****         displayOnLCD(lineOne, lineTwo);
 1441              		.loc 1 243 9 view .LVU363
 1442 02fe 94F83A31 		ldrb	r3, [r4, #314]	@ zero_extendqisi2
 1443 0302 7D4A     		ldr	r2, .L105+16
 1444 0304 1121     		movs	r1, #17
 1445 0306 3046     		mov	r0, r6
 1446 0308 FFF7FEFF 		bl	snprintf
 1447              	.LVL114:
 244:Core/Src/SimonGame.c ****         HAL_Delay(500);  //wait 1/2 second
 1448              		.loc 1 244 9 view .LVU364
 1449 030c 3146     		mov	r1, r6
 1450 030e 2846     		mov	r0, r5
 1451 0310 FFF7FEFF 		bl	displayOnLCD
 1452              	.LVL115:
 245:Core/Src/SimonGame.c ****         game->info.currentPlayer = 1;
 1453              		.loc 1 245 9 view .LVU365
 1454 0314 4FF4FA70 		mov	r0, #500
 1455 0318 FFF7FEFF 		bl	HAL_Delay
 1456              	.LVL116:
 246:Core/Src/SimonGame.c ****         playerTurn(game);
 1457              		.loc 1 246 9 view .LVU366
 246:Core/Src/SimonGame.c ****         playerTurn(game);
 1458              		.loc 1 246 34 is_stmt 0 view .LVU367
 1459 031c 0123     		movs	r3, #1
ARM GAS  C:\Users\elhyd\AppData\Local\Temp\ccbljKy4.s 			page 41


 1460 031e 6371     		strb	r3, [r4, #5]
 247:Core/Src/SimonGame.c **** 
 1461              		.loc 1 247 9 is_stmt 1 view .LVU368
 1462 0320 2046     		mov	r0, r4
 1463 0322 FFF7FEFF 		bl	playerTurn
 1464              	.LVL117:
 249:Core/Src/SimonGame.c ****         {
 1465              		.loc 1 249 9 view .LVU369
 249:Core/Src/SimonGame.c ****         {
 1466              		.loc 1 249 17 is_stmt 0 view .LVU370
 1467 0326 2378     		ldrb	r3, [r4]	@ zero_extendqisi2
 249:Core/Src/SimonGame.c ****         {
 1468              		.loc 1 249 12 view .LVU371
 1469 0328 062B     		cmp	r3, #6
 1470 032a 3FF4B1AE 		beq	.L65
 251:Core/Src/SimonGame.c ****           {
 1471              		.loc 1 251 11 is_stmt 1 view .LVU372
 251:Core/Src/SimonGame.c ****           {
 1472              		.loc 1 251 24 is_stmt 0 view .LVU373
 1473 032e 94F87130 		ldrb	r3, [r4, #113]	@ zero_extendqisi2
 251:Core/Src/SimonGame.c ****           {
 1474              		.loc 1 251 13 view .LVU374
 1475 0332 012B     		cmp	r3, #1
 1476 0334 36D8     		bhi	.L100
 1477              	.L88:
 259:Core/Src/SimonGame.c ****           LCD_Cls();
 1478              		.loc 1 259 11 is_stmt 1 view .LVU375
 259:Core/Src/SimonGame.c ****           LCD_Cls();
 1479              		.loc 1 259 21 is_stmt 0 view .LVU376
 1480 0336 94F87030 		ldrb	r3, [r4, #112]	@ zero_extendqisi2
 259:Core/Src/SimonGame.c ****           LCD_Cls();
 1481              		.loc 1 259 36 view .LVU377
 1482 033a 0133     		adds	r3, r3, #1
 1483 033c 84F87030 		strb	r3, [r4, #112]
 260:Core/Src/SimonGame.c ****           snprintf(lineOne, sizeof(lineOne), "Player 2's Turn");
 1484              		.loc 1 260 11 is_stmt 1 view .LVU378
 1485 0340 FFF7FEFF 		bl	LCD_Cls
 1486              	.LVL118:
 261:Core/Src/SimonGame.c ****           snprintf(lineTwo, sizeof(lineTwo), "Score: %d", game->info.playerScores[1]);
 1487              		.loc 1 261 11 view .LVU379
 1488 0344 684D     		ldr	r5, .L105
 1489 0346 6D4B     		ldr	r3, .L105+20
 1490 0348 0FCB     		ldm	r3, {r0, r1, r2, r3}
 1491 034a 85E80F00 		stm	r5, {r0, r1, r2, r3}
 262:Core/Src/SimonGame.c ****           displayOnLCD(lineOne, lineTwo);
 1492              		.loc 1 262 11 view .LVU380
 1493 034e 684E     		ldr	r6, .L105+8
 1494 0350 94F83B31 		ldrb	r3, [r4, #315]	@ zero_extendqisi2
 1495 0354 684A     		ldr	r2, .L105+16
 1496 0356 1121     		movs	r1, #17
 1497 0358 3046     		mov	r0, r6
 1498 035a FFF7FEFF 		bl	snprintf
 1499              	.LVL119:
 263:Core/Src/SimonGame.c ****           HAL_Delay(500);  //wait 1/2 second
 1500              		.loc 1 263 11 view .LVU381
 1501 035e 3146     		mov	r1, r6
 1502 0360 2846     		mov	r0, r5
ARM GAS  C:\Users\elhyd\AppData\Local\Temp\ccbljKy4.s 			page 42


 1503 0362 FFF7FEFF 		bl	displayOnLCD
 1504              	.LVL120:
 264:Core/Src/SimonGame.c ****           game->info.currentPlayer = 2;
 1505              		.loc 1 264 11 view .LVU382
 1506 0366 4FF4FA70 		mov	r0, #500
 1507 036a FFF7FEFF 		bl	HAL_Delay
 1508              	.LVL121:
 265:Core/Src/SimonGame.c ****           playerTurn(game);
 1509              		.loc 1 265 11 view .LVU383
 265:Core/Src/SimonGame.c ****           playerTurn(game);
 1510              		.loc 1 265 36 is_stmt 0 view .LVU384
 1511 036e 0223     		movs	r3, #2
 1512 0370 6371     		strb	r3, [r4, #5]
 266:Core/Src/SimonGame.c **** 
 1513              		.loc 1 266 11 is_stmt 1 view .LVU385
 1514 0372 2046     		mov	r0, r4
 1515 0374 FFF7FEFF 		bl	playerTurn
 1516              	.LVL122:
 268:Core/Src/SimonGame.c ****           {
 1517              		.loc 1 268 11 view .LVU386
 268:Core/Src/SimonGame.c ****           {
 1518              		.loc 1 268 18 is_stmt 0 view .LVU387
 1519 0378 2378     		ldrb	r3, [r4]	@ zero_extendqisi2
 268:Core/Src/SimonGame.c ****           {
 1520              		.loc 1 268 13 view .LVU388
 1521 037a 062B     		cmp	r3, #6
 1522 037c 3FF488AE 		beq	.L65
 270:Core/Src/SimonGame.c ****             if(game->state != GAME_RESULT)
 1523              		.loc 1 270 13 is_stmt 1 view .LVU389
 1524 0380 2046     		mov	r0, r4
 1525 0382 FFF7FEFF 		bl	compareSequences
 1526              	.LVL123:
 271:Core/Src/SimonGame.c ****             {
 1527              		.loc 1 271 13 view .LVU390
 271:Core/Src/SimonGame.c ****             {
 1528              		.loc 1 271 20 is_stmt 0 view .LVU391
 1529 0386 2378     		ldrb	r3, [r4]	@ zero_extendqisi2
 271:Core/Src/SimonGame.c ****             {
 1530              		.loc 1 271 15 view .LVU392
 1531 0388 062B     		cmp	r3, #6
 1532 038a 3FF481AE 		beq	.L65
 274:Core/Src/SimonGame.c ****               game->info.sequenceLength++;
 1533              		.loc 1 274 15 is_stmt 1 view .LVU393
 274:Core/Src/SimonGame.c ****               game->info.sequenceLength++;
 1534              		.loc 1 274 25 is_stmt 0 view .LVU394
 1535 038e 94F87130 		ldrb	r3, [r4, #113]	@ zero_extendqisi2
 274:Core/Src/SimonGame.c ****               game->info.sequenceLength++;
 1536              		.loc 1 274 31 view .LVU395
 1537 0392 0133     		adds	r3, r3, #1
 1538 0394 84F87130 		strb	r3, [r4, #113]
 275:Core/Src/SimonGame.c ****             }
 1539              		.loc 1 275 15 is_stmt 1 view .LVU396
 275:Core/Src/SimonGame.c ****             }
 1540              		.loc 1 275 25 is_stmt 0 view .LVU397
 1541 0398 94F87030 		ldrb	r3, [r4, #112]	@ zero_extendqisi2
 275:Core/Src/SimonGame.c ****             }
 1542              		.loc 1 275 40 view .LVU398
ARM GAS  C:\Users\elhyd\AppData\Local\Temp\ccbljKy4.s 			page 43


 1543 039c 0133     		adds	r3, r3, #1
 1544 039e 84F87030 		strb	r3, [r4, #112]
 1545 03a2 75E6     		b	.L65
 1546              	.L100:
 253:Core/Src/SimonGame.c ****             if(game->state != GAME_RESULT)
 1547              		.loc 1 253 13 is_stmt 1 view .LVU399
 1548 03a4 2046     		mov	r0, r4
 1549 03a6 FFF7FEFF 		bl	compareSequences
 1550              	.LVL124:
 254:Core/Src/SimonGame.c ****             { game->info.playerScores[0]++; }
 1551              		.loc 1 254 13 view .LVU400
 254:Core/Src/SimonGame.c ****             { game->info.playerScores[0]++; }
 1552              		.loc 1 254 20 is_stmt 0 view .LVU401
 1553 03aa 2378     		ldrb	r3, [r4]	@ zero_extendqisi2
 254:Core/Src/SimonGame.c ****             { game->info.playerScores[0]++; }
 1554              		.loc 1 254 15 view .LVU402
 1555 03ac 062B     		cmp	r3, #6
 1556 03ae C2D0     		beq	.L88
 255:Core/Src/SimonGame.c ****           }
 1557              		.loc 1 255 15 is_stmt 1 view .LVU403
 255:Core/Src/SimonGame.c ****           }
 1558              		.loc 1 255 38 is_stmt 0 view .LVU404
 1559 03b0 94F83A31 		ldrb	r3, [r4, #314]	@ zero_extendqisi2
 255:Core/Src/SimonGame.c ****           }
 1560              		.loc 1 255 41 view .LVU405
 1561 03b4 0133     		adds	r3, r3, #1
 1562 03b6 84F83A31 		strb	r3, [r4, #314]
 1563 03ba BCE7     		b	.L88
 1564              	.LVL125:
 1565              	.L71:
 282:Core/Src/SimonGame.c ****         if (game->info.numPlayers == 1 )
 1566              		.loc 1 282 9 is_stmt 1 view .LVU406
 1567 03bc FFF7FEFF 		bl	LCD_Cls
 1568              	.LVL126:
 283:Core/Src/SimonGame.c ****         {
 1569              		.loc 1 283 9 view .LVU407
 283:Core/Src/SimonGame.c ****         {
 1570              		.loc 1 283 23 is_stmt 0 view .LVU408
 1571 03c0 2379     		ldrb	r3, [r4, #4]	@ zero_extendqisi2
 283:Core/Src/SimonGame.c ****         {
 1572              		.loc 1 283 12 view .LVU409
 1573 03c2 012B     		cmp	r3, #1
 1574 03c4 37D0     		beq	.L101
 292:Core/Src/SimonGame.c ****           if(game->info.playerScores[0] > game->info.playerScores[1])
 1575              		.loc 1 292 11 is_stmt 1 view .LVU410
 1576 03c6 4E4A     		ldr	r2, .L105+24
 1577 03c8 474B     		ldr	r3, .L105
 1578 03ca 07CA     		ldm	r2, {r0, r1, r2}
 1579 03cc 03C3     		stmia	r3!, {r0, r1}
 1580 03ce 23F8022B 		strh	r2, [r3], #2	@ movhi
 1581 03d2 120C     		lsrs	r2, r2, #16
 1582 03d4 1A70     		strb	r2, [r3]
 293:Core/Src/SimonGame.c ****           {
 1583              		.loc 1 293 11 view .LVU411
 293:Core/Src/SimonGame.c ****           {
 1584              		.loc 1 293 37 is_stmt 0 view .LVU412
 1585 03d6 94F83A21 		ldrb	r2, [r4, #314]	@ zero_extendqisi2
ARM GAS  C:\Users\elhyd\AppData\Local\Temp\ccbljKy4.s 			page 44


 293:Core/Src/SimonGame.c ****           {
 1586              		.loc 1 293 66 view .LVU413
 1587 03da 94F83B31 		ldrb	r3, [r4, #315]	@ zero_extendqisi2
 293:Core/Src/SimonGame.c ****           {
 1588              		.loc 1 293 13 view .LVU414
 1589 03de 9A42     		cmp	r2, r3
 1590 03e0 43D8     		bhi	.L102
 297:Core/Src/SimonGame.c ****           {
 1591              		.loc 1 297 16 is_stmt 1 view .LVU415
 297:Core/Src/SimonGame.c ****           {
 1592              		.loc 1 297 18 is_stmt 0 view .LVU416
 1593 03e2 9A42     		cmp	r2, r3
 1594 03e4 47D2     		bcs	.L93
 299:Core/Src/SimonGame.c ****           }
 1595              		.loc 1 299 13 is_stmt 1 view .LVU417
 1596 03e6 474B     		ldr	r3, .L105+28
 1597 03e8 414D     		ldr	r5, .L105+8
 1598              	.LVL127:
 299:Core/Src/SimonGame.c ****           }
 1599              		.loc 1 299 13 is_stmt 0 view .LVU418
 1600 03ea 0FCB     		ldm	r3, {r0, r1, r2, r3}
 1601 03ec 07C5     		stmia	r5!, {r0, r1, r2}
 1602 03ee 2B80     		strh	r3, [r5]	@ movhi
 1603              	.L92:
 305:Core/Src/SimonGame.c ****           HAL_Delay(2000);  //wait 1 second
 1604              		.loc 1 305 11 is_stmt 1 view .LVU419
 1605 03f0 3F4E     		ldr	r6, .L105+8
 1606 03f2 3D4D     		ldr	r5, .L105
 1607 03f4 3146     		mov	r1, r6
 1608 03f6 2846     		mov	r0, r5
 1609 03f8 FFF7FEFF 		bl	displayOnLCD
 1610              	.LVL128:
 306:Core/Src/SimonGame.c **** 
 1611              		.loc 1 306 11 view .LVU420
 1612 03fc 4FF4FA60 		mov	r0, #2000
 1613 0400 FFF7FEFF 		bl	HAL_Delay
 1614              	.LVL129:
 308:Core/Src/SimonGame.c ****           snprintf(lineTwo, sizeof(lineTwo), "P2 Score: %d", game->info.playerScores[1]);
 1615              		.loc 1 308 11 view .LVU421
 1616 0404 94F83A31 		ldrb	r3, [r4, #314]	@ zero_extendqisi2
 1617 0408 3F4A     		ldr	r2, .L105+32
 1618 040a 1121     		movs	r1, #17
 1619 040c 2846     		mov	r0, r5
 1620 040e FFF7FEFF 		bl	snprintf
 1621              	.LVL130:
 309:Core/Src/SimonGame.c ****           displayOnLCD(lineOne, lineTwo);
 1622              		.loc 1 309 11 view .LVU422
 1623 0412 94F83B31 		ldrb	r3, [r4, #315]	@ zero_extendqisi2
 1624 0416 3D4A     		ldr	r2, .L105+36
 1625 0418 1121     		movs	r1, #17
 1626 041a 3046     		mov	r0, r6
 1627 041c FFF7FEFF 		bl	snprintf
 1628              	.LVL131:
 310:Core/Src/SimonGame.c ****           HAL_Delay(2000);  //wait 2 seconds
 1629              		.loc 1 310 11 view .LVU423
 1630 0420 3146     		mov	r1, r6
 1631 0422 2846     		mov	r0, r5
ARM GAS  C:\Users\elhyd\AppData\Local\Temp\ccbljKy4.s 			page 45


 1632 0424 FFF7FEFF 		bl	displayOnLCD
 1633              	.LVL132:
 311:Core/Src/SimonGame.c ****         }
 1634              		.loc 1 311 11 view .LVU424
 1635 0428 4FF4FA60 		mov	r0, #2000
 1636 042c FFF7FEFF 		bl	HAL_Delay
 1637              	.LVL133:
 1638              	.L90:
 313:Core/Src/SimonGame.c ****         break;
 1639              		.loc 1 313 9 view .LVU425
 313:Core/Src/SimonGame.c ****         break;
 1640              		.loc 1 313 21 is_stmt 0 view .LVU426
 1641 0430 0723     		movs	r3, #7
 1642 0432 2370     		strb	r3, [r4]
 314:Core/Src/SimonGame.c ****       
 1643              		.loc 1 314 9 is_stmt 1 view .LVU427
 1644 0434 2CE6     		b	.L65
 1645              	.LVL134:
 1646              	.L101:
 285:Core/Src/SimonGame.c ****           snprintf(lineTwo, sizeof(lineTwo), "P1 Score: %d", game->info.playerScores[0]);
 1647              		.loc 1 285 11 view .LVU428
 1648 0436 2C4D     		ldr	r5, .L105
 1649              	.LVL135:
 285:Core/Src/SimonGame.c ****           snprintf(lineTwo, sizeof(lineTwo), "P1 Score: %d", game->info.playerScores[0]);
 1650              		.loc 1 285 11 is_stmt 0 view .LVU429
 1651 0438 314A     		ldr	r2, .L105+24
 1652 043a 2B46     		mov	r3, r5
 1653 043c 07CA     		ldm	r2, {r0, r1, r2}
 1654 043e 03C3     		stmia	r3!, {r0, r1}
 1655 0440 23F8022B 		strh	r2, [r3], #2	@ movhi
 1656 0444 120C     		lsrs	r2, r2, #16
 1657 0446 1A70     		strb	r2, [r3]
 286:Core/Src/SimonGame.c ****           displayOnLCD(lineOne, lineTwo);
 1658              		.loc 1 286 11 is_stmt 1 view .LVU430
 1659 0448 294E     		ldr	r6, .L105+8
 1660 044a 94F83A31 		ldrb	r3, [r4, #314]	@ zero_extendqisi2
 1661 044e 2E4A     		ldr	r2, .L105+32
 1662 0450 1121     		movs	r1, #17
 1663 0452 3046     		mov	r0, r6
 1664 0454 FFF7FEFF 		bl	snprintf
 1665              	.LVL136:
 287:Core/Src/SimonGame.c ****           HAL_Delay(2000);  //wait 2 seconds
 1666              		.loc 1 287 11 view .LVU431
 1667 0458 3146     		mov	r1, r6
 1668 045a 2846     		mov	r0, r5
 1669 045c FFF7FEFF 		bl	displayOnLCD
 1670              	.LVL137:
 288:Core/Src/SimonGame.c ****         }
 1671              		.loc 1 288 11 view .LVU432
 1672 0460 4FF4FA60 		mov	r0, #2000
 1673 0464 FFF7FEFF 		bl	HAL_Delay
 1674              	.LVL138:
 1675 0468 E2E7     		b	.L90
 1676              	.LVL139:
 1677              	.L102:
 295:Core/Src/SimonGame.c ****           }
 1678              		.loc 1 295 13 view .LVU433
ARM GAS  C:\Users\elhyd\AppData\Local\Temp\ccbljKy4.s 			page 46


 1679 046a 294B     		ldr	r3, .L105+40
 1680 046c 204D     		ldr	r5, .L105+8
 1681              	.LVL140:
 295:Core/Src/SimonGame.c ****           }
 1682              		.loc 1 295 13 is_stmt 0 view .LVU434
 1683 046e 0FCB     		ldm	r3, {r0, r1, r2, r3}
 1684 0470 07C5     		stmia	r5!, {r0, r1, r2}
 1685 0472 2B80     		strh	r3, [r5]	@ movhi
 1686 0474 BCE7     		b	.L92
 1687              	.LVL141:
 1688              	.L93:
 303:Core/Src/SimonGame.c ****           }
 1689              		.loc 1 303 13 is_stmt 1 view .LVU435
 1690 0476 274B     		ldr	r3, .L105+44
 1691 0478 1D4D     		ldr	r5, .L105+8
 1692              	.LVL142:
 303:Core/Src/SimonGame.c ****           }
 1693              		.loc 1 303 13 is_stmt 0 view .LVU436
 1694 047a 0FCB     		ldm	r3, {r0, r1, r2, r3}
 1695 047c 07C5     		stmia	r5!, {r0, r1, r2}
 1696 047e 2B70     		strb	r3, [r5]
 1697 0480 B6E7     		b	.L92
 1698              	.LVL143:
 1699              	.L70:
 317:Core/Src/SimonGame.c ****         snprintf(lineOne, sizeof(lineOne), "Play Again?");
 1700              		.loc 1 317 9 is_stmt 1 view .LVU437
 1701 0482 FFF7FEFF 		bl	LCD_Cls
 1702              	.LVL144:
 318:Core/Src/SimonGame.c ****         snprintf(lineTwo, sizeof(lineTwo), "Push to Start");
 1703              		.loc 1 318 9 view .LVU438
 1704 0486 184E     		ldr	r6, .L105
 1705 0488 234B     		ldr	r3, .L105+48
 1706 048a 93E80700 		ldm	r3, {r0, r1, r2}
 1707 048e 86E80700 		stm	r6, {r0, r1, r2}
 319:Core/Src/SimonGame.c ****         displayOnLCD(lineOne, lineTwo);
 1708              		.loc 1 319 9 view .LVU439
 1709 0492 174F     		ldr	r7, .L105+8
 1710 0494 214B     		ldr	r3, .L105+52
 1711 0496 3D46     		mov	r5, r7
 1712              	.LVL145:
 319:Core/Src/SimonGame.c ****         displayOnLCD(lineOne, lineTwo);
 1713              		.loc 1 319 9 is_stmt 0 view .LVU440
 1714 0498 0FCB     		ldm	r3, {r0, r1, r2, r3}
 1715 049a 07C5     		stmia	r5!, {r0, r1, r2}
 1716 049c 2B80     		strh	r3, [r5]	@ movhi
 320:Core/Src/SimonGame.c ****         game->state = START;
 1717              		.loc 1 320 9 is_stmt 1 view .LVU441
 1718 049e 3946     		mov	r1, r7
 1719 04a0 3046     		mov	r0, r6
 1720 04a2 FFF7FEFF 		bl	displayOnLCD
 1721              	.LVL146:
 321:Core/Src/SimonGame.c **** 
 1722              		.loc 1 321 9 view .LVU442
 321:Core/Src/SimonGame.c **** 
 1723              		.loc 1 321 21 is_stmt 0 view .LVU443
 1724 04a6 0123     		movs	r3, #1
 1725 04a8 2370     		strb	r3, [r4]
ARM GAS  C:\Users\elhyd\AppData\Local\Temp\ccbljKy4.s 			page 47


 323:Core/Src/SimonGame.c ****         __HAL_TIM_SET_COUNTER(&htim2, 0);
 1726              		.loc 1 323 9 is_stmt 1 view .LVU444
 323:Core/Src/SimonGame.c ****         __HAL_TIM_SET_COUNTER(&htim2, 0);
 1727              		.loc 1 323 21 is_stmt 0 view .LVU445
 1728 04aa 0023     		movs	r3, #0
 1729 04ac 1C4A     		ldr	r2, .L105+56
 1730 04ae 1360     		str	r3, [r2]
 324:Core/Src/SimonGame.c ****         break;
 1731              		.loc 1 324 9 is_stmt 1 view .LVU446
 1732 04b0 1C4A     		ldr	r2, .L105+60
 1733 04b2 1268     		ldr	r2, [r2]
 1734 04b4 5362     		str	r3, [r2, #36]
 325:Core/Src/SimonGame.c **** 
 1735              		.loc 1 325 9 view .LVU447
 1736 04b6 EBE5     		b	.L65
 1737              	.LVL147:
 1738              	.L69:
 328:Core/Src/SimonGame.c ****         snprintf(lineOne, sizeof(lineOne), "");
 1739              		.loc 1 328 9 view .LVU448
 1740 04b8 FFF7FEFF 		bl	LCD_Cls
 1741              	.LVL148:
 329:Core/Src/SimonGame.c ****         snprintf(lineTwo, sizeof(lineTwo), "");
 1742              		.loc 1 329 9 view .LVU449
 1743 04bc 0A48     		ldr	r0, .L105
 1744 04be 0023     		movs	r3, #0
 1745 04c0 0370     		strb	r3, [r0]
 330:Core/Src/SimonGame.c ****         displayOnLCD(lineOne, lineTwo);
 1746              		.loc 1 330 9 view .LVU450
 1747 04c2 0B49     		ldr	r1, .L105+8
 1748 04c4 0B70     		strb	r3, [r1]
 331:Core/Src/SimonGame.c ****         game->state = WAKE_UP;
 1749              		.loc 1 331 9 view .LVU451
 1750 04c6 FFF7FEFF 		bl	displayOnLCD
 1751              	.LVL149:
 332:Core/Src/SimonGame.c ****         break;
 1752              		.loc 1 332 9 view .LVU452
 332:Core/Src/SimonGame.c ****         break;
 1753              		.loc 1 332 21 is_stmt 0 view .LVU453
 1754 04ca 0923     		movs	r3, #9
 1755 04cc 2370     		strb	r3, [r4]
 333:Core/Src/SimonGame.c **** 
 1756              		.loc 1 333 9 is_stmt 1 view .LVU454
 1757 04ce DFE5     		b	.L65
 1758              	.LVL150:
 1759              	.L67:
 337:Core/Src/SimonGame.c ****         { game->state = WELCOME;  } 
 1760              		.loc 1 337 9 view .LVU455
 337:Core/Src/SimonGame.c ****         { game->state = WELCOME;  } 
 1761              		.loc 1 337 13 is_stmt 0 view .LVU456
 1762 04d0 0846     		mov	r0, r1
 1763              	.LVL151:
 337:Core/Src/SimonGame.c ****         { game->state = WELCOME;  } 
 1764              		.loc 1 337 13 view .LVU457
 1765 04d2 FFF7FEFF 		bl	Joystick_Pressed
 1766              	.LVL152:
 337:Core/Src/SimonGame.c ****         { game->state = WELCOME;  } 
 1767              		.loc 1 337 12 discriminator 1 view .LVU458
ARM GAS  C:\Users\elhyd\AppData\Local\Temp\ccbljKy4.s 			page 48


 1768 04d6 0028     		cmp	r0, #0
 1769 04d8 3FF4DAAD 		beq	.L65
 338:Core/Src/SimonGame.c ****         break;
 1770              		.loc 1 338 11 is_stmt 1 view .LVU459
 338:Core/Src/SimonGame.c ****         break;
 1771              		.loc 1 338 23 is_stmt 0 view .LVU460
 1772 04dc 0023     		movs	r3, #0
 1773 04de 2370     		strb	r3, [r4]
 1774 04e0 D6E5     		b	.L65
 1775              	.LVL153:
 1776              	.L66:
 342:Core/Src/SimonGame.c ****         break;
 1777              		.loc 1 342 9 is_stmt 1 view .LVU461
 342:Core/Src/SimonGame.c ****         break;
 1778              		.loc 1 342 21 is_stmt 0 view .LVU462
 1779 04e2 0823     		movs	r3, #8
 1780 04e4 0370     		strb	r3, [r0]
 343:Core/Src/SimonGame.c ****     }
 1781              		.loc 1 343 9 is_stmt 1 view .LVU463
 345:Core/Src/SimonGame.c **** 
 1782              		.loc 1 345 1 is_stmt 0 view .LVU464
 1783 04e6 D3E5     		b	.L65
 1784              	.L106:
 1785              		.align	2
 1786              	.L105:
 1787 04e8 00000000 		.word	lineOne
 1788 04ec 64000000 		.word	.LC11
 1789 04f0 00000000 		.word	lineTwo
 1790 04f4 9C000000 		.word	.LC15
 1791 04f8 90000000 		.word	.LC14
 1792 04fc AC000000 		.word	.LC16
 1793 0500 BC000000 		.word	.LC17
 1794 0504 E8000000 		.word	.LC20
 1795 0508 C8000000 		.word	.LC18
 1796 050c 08010000 		.word	.LC22
 1797 0510 D8000000 		.word	.LC19
 1798 0514 F8000000 		.word	.LC21
 1799 0518 18010000 		.word	.LC23
 1800 051c 24010000 		.word	.LC24
 1801 0520 00000000 		.word	buttonTimer
 1802 0524 00000000 		.word	htim2
 1803              		.cfi_endproc
 1804              	.LFE1110:
 1806              		.section	.text.HAL_TIM_PeriodElapsedCallback,"ax",%progbits
 1807              		.align	1
 1808              		.global	HAL_TIM_PeriodElapsedCallback
 1809              		.syntax unified
 1810              		.thumb
 1811              		.thumb_func
 1813              	HAL_TIM_PeriodElapsedCallback:
 1814              	.LVL154:
 1815              	.LFB1115:
 507:Core/Src/SimonGame.c **** 
 508:Core/Src/SimonGame.c **** /**
 509:Core/Src/SimonGame.c ****  * @brief  Timer period elapsed callback.
 510:Core/Src/SimonGame.c ****  * @param  htim: Pointer to a TIM_HandleTypeDef structure that contains
 511:Core/Src/SimonGame.c ****  *                the configuration information for TIM module.
ARM GAS  C:\Users\elhyd\AppData\Local\Temp\ccbljKy4.s 			page 49


 512:Core/Src/SimonGame.c ****  */
 513:Core/Src/SimonGame.c **** void HAL_TIM_PeriodElapsedCallback(TIM_HandleTypeDef *htim)
 514:Core/Src/SimonGame.c **** {
 1816              		.loc 1 514 1 is_stmt 1 view -0
 1817              		.cfi_startproc
 1818              		@ args = 0, pretend = 0, frame = 0
 1819              		@ frame_needed = 0, uses_anonymous_args = 0
 1820              		.loc 1 514 1 is_stmt 0 view .LVU466
 1821 0000 08B5     		push	{r3, lr}
 1822              		.cfi_def_cfa_offset 8
 1823              		.cfi_offset 3, -8
 1824              		.cfi_offset 14, -4
 515:Core/Src/SimonGame.c ****   static char msg[500];
 1825              		.loc 1 515 3 is_stmt 1 view .LVU467
 516:Core/Src/SimonGame.c ****     if (htim->Instance == TIM2)
 1826              		.loc 1 516 5 view .LVU468
 1827              		.loc 1 516 13 is_stmt 0 view .LVU469
 1828 0002 0368     		ldr	r3, [r0]
 1829              		.loc 1 516 8 view .LVU470
 1830 0004 B3F1804F 		cmp	r3, #1073741824
 1831 0008 00D0     		beq	.L110
 1832              	.LVL155:
 1833              	.L107:
 517:Core/Src/SimonGame.c ****     { 
 518:Core/Src/SimonGame.c ****       buttonTimer++;  
 519:Core/Src/SimonGame.c **** 
 520:Core/Src/SimonGame.c ****       debounceButtons(RedButton_GPIO_Port, RedButton_Pin, &redButton);
 521:Core/Src/SimonGame.c ****       debounceButtons(BlueButton_GPIO_Port, BlueButton_Pin, &blueButton);
 522:Core/Src/SimonGame.c ****       debounceButtons(YellowButtonm_GPIO_Port, YellowButtonm_Pin, &yellowButton);
 523:Core/Src/SimonGame.c ****       debounceButtons(GreenButton_GPIO_Port, GreenButton_Pin, &greenButton);
 524:Core/Src/SimonGame.c ****     }
 525:Core/Src/SimonGame.c **** }...
 1834              		.loc 1 525 1 view .LVU471
 1835 000a 08BD     		pop	{r3, pc}
 1836              	.LVL156:
 1837              	.L110:
 518:Core/Src/SimonGame.c ****       buttonTimer++;  
 1838              		.loc 1 518 7 is_stmt 1 view .LVU472
 518:Core/Src/SimonGame.c ****       buttonTimer++;  
 1839              		.loc 1 518 18 is_stmt 0 view .LVU473
 1840 000c 0E4A     		ldr	r2, .L111
 1841 000e 1368     		ldr	r3, [r2]
 1842 0010 0133     		adds	r3, r3, #1
 1843 0012 1360     		str	r3, [r2]
 520:Core/Src/SimonGame.c ****       debounceButtons(RedButton_GPIO_Port, RedButton_Pin, &redButton);
 1844              		.loc 1 520 7 is_stmt 1 view .LVU474
 1845 0014 0D4A     		ldr	r2, .L111+4
 1846 0016 4FF48051 		mov	r1, #4096
 1847 001a 0D48     		ldr	r0, .L111+8
 1848              	.LVL157:
 520:Core/Src/SimonGame.c ****       debounceButtons(RedButton_GPIO_Port, RedButton_Pin, &redButton);
 1849              		.loc 1 520 7 is_stmt 0 view .LVU475
 1850 001c FFF7FEFF 		bl	debounceButtons
 1851              	.LVL158:
 521:Core/Src/SimonGame.c ****       debounceButtons(BlueButton_GPIO_Port, BlueButton_Pin, &blueButton);
 1852              		.loc 1 521 7 is_stmt 1 view .LVU476
 1853 0020 0C4A     		ldr	r2, .L111+12
ARM GAS  C:\Users\elhyd\AppData\Local\Temp\ccbljKy4.s 			page 50


 1854 0022 1021     		movs	r1, #16
 1855 0024 4FF09040 		mov	r0, #1207959552
 1856 0028 FFF7FEFF 		bl	debounceButtons
 1857              	.LVL159:
 522:Core/Src/SimonGame.c ****       debounceButtons(YellowButtonm_GPIO_Port, YellowButtonm_Pin, &yellowButton);
 1858              		.loc 1 522 7 view .LVU477
 1859 002c 0A4A     		ldr	r2, .L111+16
 1860 002e 4021     		movs	r1, #64
 1861 0030 4FF09040 		mov	r0, #1207959552
 1862 0034 FFF7FEFF 		bl	debounceButtons
 1863              	.LVL160:
 523:Core/Src/SimonGame.c ****       debounceButtons(GreenButton_GPIO_Port, GreenButton_Pin, &greenButton);
 1864              		.loc 1 523 7 view .LVU478
 1865 0038 084A     		ldr	r2, .L111+20
 1866 003a 2021     		movs	r1, #32
 1867 003c 4FF09040 		mov	r0, #1207959552
 1868 0040 FFF7FEFF 		bl	debounceButtons
 1869              	.LVL161:
 1870              		.loc 1 525 1 is_stmt 0 view .LVU479
 1871 0044 E1E7     		b	.L107
 1872              	.L112:
 1873 0046 00BF     		.align	2
 1874              	.L111:
 1875 0048 00000000 		.word	buttonTimer
 1876 004c 00000000 		.word	redButton
 1877 0050 00080048 		.word	1207961600
 1878 0054 00000000 		.word	blueButton
 1879 0058 00000000 		.word	yellowButton
 1880 005c 00000000 		.word	greenButton
 1881              		.cfi_endproc
 1882              	.LFE1115:
 1884              		.section	.bss.msg.0,"aw",%nobits
 1885              		.align	2
 1888              	msg.0:
 1889 0000 00000000 		.space	500
 1889      00000000 
 1889      00000000 
 1889      00000000 
 1889      00000000 
 1890              		.section	.bss.lastDirection.1,"aw",%nobits
 1893              	lastDirection.1:
 1894 0000 00       		.space	1
 1895              		.section	.bss.directionDelay.2,"aw",%nobits
 1896              		.align	2
 1899              	directionDelay.2:
 1900 0000 00000000 		.space	4
 1901              		.section	.bss.direction.3,"aw",%nobits
 1904              	direction.3:
 1905 0000 00       		.space	1
 1906              		.section	.bss.lineTwo,"aw",%nobits
 1907              		.align	2
 1910              	lineTwo:
 1911 0000 00000000 		.space	17
 1911      00000000 
 1911      00000000 
 1911      00000000 
 1911      00
ARM GAS  C:\Users\elhyd\AppData\Local\Temp\ccbljKy4.s 			page 51


 1912              		.section	.bss.lineOne,"aw",%nobits
 1913              		.align	2
 1916              	lineOne:
 1917 0000 00000000 		.space	17
 1917      00000000 
 1917      00000000 
 1917      00000000 
 1917      00
 1918              		.section	.data.greenButton,"aw"
 1919              		.align	2
 1922              	greenButton:
 1923 0000 00       		.byte	0
 1924 0001 00       		.byte	0
 1925 0002 0000     		.space	2
 1926 0004 00100048 		.word	1207963648
 1927 0008 1000     		.short	16
 1928 000a 0000     		.space	2
 1929              		.section	.data.yellowButton,"aw"
 1930              		.align	2
 1933              	yellowButton:
 1934 0000 00       		.byte	0
 1935 0001 00       		.byte	0
 1936 0002 0000     		.space	2
 1937 0004 00040048 		.word	1207960576
 1938 0008 0400     		.short	4
 1939 000a 0000     		.space	2
 1940              		.section	.data.blueButton,"aw"
 1941              		.align	2
 1944              	blueButton:
 1945 0000 00       		.byte	0
 1946 0001 00       		.byte	0
 1947 0002 0000     		.space	2
 1948 0004 00080048 		.word	1207961600
 1949 0008 2000     		.short	32
 1950 000a 0000     		.space	2
 1951              		.section	.data.redButton,"aw"
 1952              		.align	2
 1955              	redButton:
 1956 0000 00       		.byte	0
 1957 0001 00       		.byte	0
 1958 0002 0000     		.space	2
 1959 0004 00040048 		.word	1207960576
 1960 0008 0008     		.short	2048
 1961 000a 0000     		.space	2
 1962              		.section	.bss.buttonTimer,"aw",%nobits
 1963              		.align	2
 1966              	buttonTimer:
 1967 0000 00000000 		.space	4
 1968              		.text
 1969              	.Letext0:
 1970              		.file 2 "C:/Users/elhyd/AppData/Roaming/Code/User/globalStorage/bmd.stm32-for-vscode/@xpack-dev-to
 1971              		.file 3 "C:/Users/elhyd/AppData/Roaming/Code/User/globalStorage/bmd.stm32-for-vscode/@xpack-dev-to
 1972              		.file 4 "Drivers/CMSIS/Device/ST/STM32WBxx/Include/stm32wb55xx.h"
 1973              		.file 5 "Drivers/CMSIS/Device/ST/STM32WBxx/Include/stm32wbxx.h"
 1974              		.file 6 "C:/Users/elhyd/AppData/Roaming/Code/User/globalStorage/bmd.stm32-for-vscode/@xpack-dev-to
 1975              		.file 7 "Drivers/STM32WBxx_HAL_Driver/Inc/stm32wbxx_hal_def.h"
 1976              		.file 8 "Drivers/STM32WBxx_HAL_Driver/Inc/stm32wbxx_hal_dma.h"
ARM GAS  C:\Users\elhyd\AppData\Local\Temp\ccbljKy4.s 			page 52


 1977              		.file 9 "Drivers/STM32WBxx_HAL_Driver/Inc/stm32wbxx_hal_adc.h"
 1978              		.file 10 "Drivers/STM32WBxx_HAL_Driver/Inc/stm32wbxx_hal_gpio.h"
 1979              		.file 11 "Drivers/STM32WBxx_HAL_Driver/Inc/stm32wbxx_hal_tim.h"
 1980              		.file 12 "Drivers/STM32WBxx_HAL_Driver/Inc/stm32wbxx_hal_uart.h"
 1981              		.file 13 "Core/Inc/joystick.h"
 1982              		.file 14 "Core/Inc/SimonGame.h"
 1983              		.file 15 "Core/Inc/tim.h"
 1984              		.file 16 "Core/Inc/usart.h"
 1985              		.file 17 "C:/Users/elhyd/AppData/Roaming/Code/User/globalStorage/bmd.stm32-for-vscode/@xpack-dev-t
 1986              		.file 18 "C:/Users/elhyd/AppData/Roaming/Code/User/globalStorage/bmd.stm32-for-vscode/@xpack-dev-t
 1987              		.file 19 "C:/Users/elhyd/AppData/Roaming/Code/User/globalStorage/bmd.stm32-for-vscode/@xpack-dev-t
 1988              		.file 20 "Drivers/STM32WBxx_HAL_Driver/Inc/stm32wbxx_hal.h"
 1989              		.file 21 "Core/Inc/lcd1602.h"
 1990              		.file 22 "<built-in>"
ARM GAS  C:\Users\elhyd\AppData\Local\Temp\ccbljKy4.s 			page 53

